
main.elf:     file format elf32-littlearm
architecture: arm, flags 0x00000012:
EXEC_P, HAS_SYMS
start address 0x001899d8

Sections:
Idx Name          Size      VMA       LMA       File off  Algn
  0 .text         000164b8  001899d8  001899d8  00000058  2**3
                  CONTENTS, ALLOC, LOAD, CODE
  2 .data         00009dd4  0019ff90  0019ff90  00016610  2**2
                  CONTENTS, ALLOC, LOAD, DATA
  3 .bss          00001adc  001a9d64  001a9d64  000203e4  2**2
                  ALLOC

Disassembly of section .text:

001899d8 <_start>:
  1899d8:	e3a00002 	mov	r0, #2
  1899dc:	e3300002 	teq	r0, #2
  1899e0:	e3a0dc19 	mov	sp, #6400	; 0x1900
  1899e4:	e3a0b000 	mov	fp, #0
  1899e8:	eaffffff 	b	1899ec <startup>

001899ec <startup>:
  1899ec:	e52de004 	push	{lr}		; (str lr, [sp, #-4]!)
  1899f0:	e59f3044 	ldr	r3, [pc, #68]	; 189a3c <startup+0x50>
  1899f4:	e59f2044 	ldr	r2, [pc, #68]	; 189a40 <startup+0x54>
  1899f8:	e59f1044 	ldr	r1, [pc, #68]	; 189a44 <startup+0x58>
  1899fc:	e0622001 	rsb	r2, r2, r1
  189a00:	e1520003 	cmp	r2, r3
  189a04:	e1a01003 	mov	r1, r3
  189a08:	aa000004 	bge	189a20 <startup+0x34>
  189a0c:	e3a00001 	mov	r0, #1
  189a10:	eb00002b 	bl	189ac4 <debug_led>
  189a14:	eb000034 	bl	189aec <shutdown>
  189a18:	e4832004 	str	r2, [r3], #4
  189a1c:	ea000001 	b	189a28 <startup+0x3c>
  189a20:	e59f3020 	ldr	r3, [pc, #32]	; 189a48 <startup+0x5c>
  189a24:	e3a02000 	mov	r2, #0
  189a28:	e1530001 	cmp	r3, r1
  189a2c:	3afffff9 	bcc	189a18 <startup+0x2c>
  189a30:	eb0000cd 	bl	189d6c <boot>
  189a34:	e49de004 	pop	{lr}		; (ldr lr, [sp], #4)
  189a38:	e12fff1e 	bx	lr
  189a3c:	001ab840 	.word	0x001ab840
  189a40:	001899d8 	.word	0x001899d8
  189a44:	00335218 	.word	0x00335218
  189a48:	001a9d64 	.word	0x001a9d64

00189a4c <get_focal_length>:
  189a4c:	e3500064 	cmp	r0, #100	; 0x64
  189a50:	a3a00064 	movge	r0, #100	; 0x64
  189a54:	e1c00fc0 	bic	r0, r0, r0, asr #31
  189a58:	e59f3004 	ldr	r3, [pc, #4]	; 189a64 <get_focal_length+0x18>
  189a5c:	e7930180 	ldr	r0, [r3, r0, lsl #3]
  189a60:	e12fff1e 	bx	lr
  189a64:	ffffcb7c 	.word	0xffffcb7c

00189a68 <get_effective_focal_length>:
  189a68:	e52de004 	push	{lr}		; (str lr, [sp, #-4]!)
  189a6c:	ebfffff6 	bl	189a4c <get_focal_length>
  189a70:	e3a03e15 	mov	r3, #336	; 0x150
  189a74:	e0000093 	mul	r0, r3, r0
  189a78:	e3a0103c 	mov	r1, #60	; 0x3c
  189a7c:	eb004d59 	bl	19cfe8 <__aeabi_idiv>
  189a80:	e49de004 	pop	{lr}		; (ldr lr, [sp], #4)
  189a84:	e12fff1e 	bx	lr

00189a88 <get_zoom_x>:
  189a88:	e52de004 	push	{lr}		; (str lr, [sp, #-4]!)
  189a8c:	ebffffee 	bl	189a4c <get_focal_length>
  189a90:	e3a0300a 	mov	r3, #10
  189a94:	e0000093 	mul	r0, r3, r0
  189a98:	e59f300c 	ldr	r3, [pc, #12]	; 189aac <get_zoom_x+0x24>
  189a9c:	e5931000 	ldr	r1, [r3]
  189aa0:	eb004d50 	bl	19cfe8 <__aeabi_idiv>
  189aa4:	e49de004 	pop	{lr}		; (ldr lr, [sp], #4)
  189aa8:	e12fff1e 	bx	lr
  189aac:	ffffcb7c 	.word	0xffffcb7c

00189ab0 <get_vbatt_min>:
  189ab0:	e59f0000 	ldr	r0, [pc]	; 189ab8 <get_vbatt_min+0x8>
  189ab4:	e12fff1e 	bx	lr
  189ab8:	00000cb2 	.word	0x00000cb2

00189abc <get_vbatt_max>:
  189abc:	e3a00efa 	mov	r0, #4000	; 0xfa0
  189ac0:	e12fff1e 	bx	lr

00189ac4 <debug_led>:
  189ac4:	e59f3014 	ldr	r3, [pc, #20]	; 189ae0 <debug_led+0x1c>
  189ac8:	e59f2014 	ldr	r2, [pc, #20]	; 189ae4 <debug_led+0x20>
  189acc:	e3500000 	cmp	r0, #0
  189ad0:	01a03002 	moveq	r3, r2
  189ad4:	e59f100c 	ldr	r1, [pc, #12]	; 189ae8 <debug_led+0x24>
  189ad8:	e58131fc 	str	r3, [r1, #508]	; 0x1fc
  189adc:	e12fff1e 	bx	lr
  189ae0:	0093d800 	.word	0x0093d800
  189ae4:	0083dc00 	.word	0x0083dc00
  189ae8:	c022f000 	.word	0xc022f000

00189aec <shutdown>:
  189aec:	e52de004 	push	{lr}		; (str lr, [sp, #-4]!)
  189af0:	eb0004d3 	bl	18ae44 <_TurnOffE1>
  189af4:	eafffffe 	b	189af4 <shutdown+0x8>

00189af8 <camera_set_led>:
  189af8:	e52de004 	push	{lr}		; (str lr, [sp, #-4]!)
  189afc:	e2000001 	and	r0, r0, #1
  189b00:	e59f301c 	ldr	r3, [pc, #28]	; 189b24 <camera_set_led+0x2c>
  189b04:	e7d30000 	ldrb	r0, [r3, r0]
  189b08:	e3510001 	cmp	r1, #1
  189b0c:	ca000001 	bgt	189b18 <camera_set_led+0x20>
  189b10:	e2711001 	rsbs	r1, r1, #1
  189b14:	33a01000 	movcc	r1, #0
  189b18:	eb0003db 	bl	18aa8c <_LEDDrive>
  189b1c:	e49de004 	pop	{lr}		; (ldr lr, [sp], #4)
  189b20:	e12fff1e 	bx	lr
  189b24:	0019ff94 	.word	0x0019ff94

00189b28 <vid_get_viewport_fb>:
  189b28:	e59f0000 	ldr	r0, [pc]	; 189b30 <vid_get_viewport_fb+0x8>
  189b2c:	e12fff1e 	bx	lr
  189b30:	40866b80 	.word	0x40866b80

00189b34 <camera_jpeg_count_str>:
  189b34:	e59f0000 	ldr	r0, [pc]	; 189b3c <camera_jpeg_count_str+0x8>
  189b38:	e12fff1e 	bx	lr
  189b3c:	000d7868 	.word	0x000d7868

00189b40 <get_flash_params_count>:
  189b40:	e3a000d4 	mov	r0, #212	; 0xd4
  189b44:	e12fff1e 	bx	lr

00189b48 <vid_get_bitmap_fb>:
  189b48:	e59f3004 	ldr	r3, [pc, #4]	; 189b54 <vid_get_bitmap_fb+0xc>
  189b4c:	e5930000 	ldr	r0, [r3]
  189b50:	e12fff1e 	bx	lr
  189b54:	00003a9c 	.word	0x00003a9c

00189b58 <vid_get_bitmap_active_buffer>:
  189b58:	e59f300c 	ldr	r3, [pc, #12]	; 189b6c <vid_get_bitmap_active_buffer+0x14>
  189b5c:	e5932000 	ldr	r2, [r3]
  189b60:	e59f3008 	ldr	r3, [pc, #8]	; 189b70 <vid_get_bitmap_active_buffer+0x18>
  189b64:	e7930102 	ldr	r0, [r3, r2, lsl #2]
  189b68:	e12fff1e 	bx	lr
  189b6c:	00003a98 	.word	0x00003a98
  189b70:	00003a9c 	.word	0x00003a9c

00189b74 <vid_get_bitmap_active_palette>:
  189b74:	e59f301c 	ldr	r3, [pc, #28]	; 189b98 <vid_get_bitmap_active_palette+0x24>
  189b78:	e5933000 	ldr	r3, [r3]
  189b7c:	e59f2018 	ldr	r2, [pc, #24]	; 189b9c <vid_get_bitmap_active_palette+0x28>
  189b80:	e5922000 	ldr	r2, [r2]
  189b84:	e7930102 	ldr	r0, [r3, r2, lsl #2]
  189b88:	e3500000 	cmp	r0, #0
  189b8c:	05930000 	ldreq	r0, [r3]
  189b90:	e2800004 	add	r0, r0, #4
  189b94:	e12fff1e 	bx	lr
  189b98:	00007c10 	.word	0x00007c10
  189b9c:	00007c0c 	.word	0x00007c0c

00189ba0 <vid_get_viewport_width>:
  189ba0:	e52de004 	push	{lr}		; (str lr, [sp, #-4]!)
  189ba4:	eb005751 	bl	19f8f0 <__mode_get_from_arm>
  189ba8:	e2000c03 	and	r0, r0, #768	; 0x300
  189bac:	e3500c02 	cmp	r0, #512	; 0x200
  189bb0:	03a00f5a 	moveq	r0, #360	; 0x168
  189bb4:	0a000001 	beq	189bc0 <vid_get_viewport_width+0x20>
  189bb8:	eb0003ad 	bl	18aa74 <_GetVRAMHPixelsSize>
  189bbc:	e1a000c0 	asr	r0, r0, #1
  189bc0:	e49de004 	pop	{lr}		; (ldr lr, [sp], #4)
  189bc4:	e12fff1e 	bx	lr

00189bc8 <vid_get_viewport_height>:
  189bc8:	e52de004 	push	{lr}		; (str lr, [sp, #-4]!)
  189bcc:	eb005747 	bl	19f8f0 <__mode_get_from_arm>
  189bd0:	e2000c03 	and	r0, r0, #768	; 0x300
  189bd4:	e3500c02 	cmp	r0, #512	; 0x200
  189bd8:	03a000f0 	moveq	r0, #240	; 0xf0
  189bdc:	1b0003a5 	blne	18aa78 <_GetVRAMVPixelsSize>
  189be0:	e49de004 	pop	{lr}		; (ldr lr, [sp], #4)
  189be4:	e12fff1e 	bx	lr

00189be8 <vid_get_viewport_fb_d>:
  189be8:	e59f3004 	ldr	r3, [pc, #4]	; 189bf4 <vid_get_viewport_fb_d+0xc>
  189bec:	e5930000 	ldr	r0, [r3]
  189bf0:	e12fff1e 	bx	lr
  189bf4:	00003534 	.word	0x00003534

00189bf8 <vid_get_viewport_live_fb>:
  189bf8:	e3a00000 	mov	r0, #0
  189bfc:	e12fff1e 	bx	lr

00189c00 <hook_raw_image_addr>:
  189c00:	e59f0000 	ldr	r0, [pc]	; 189c08 <hook_raw_image_addr+0x8>
  189c04:	e12fff1e 	bx	lr
  189c08:	43737e20 	.word	0x43737e20

00189c0c <vid_bitmap_refresh>:
  189c0c:	e52de004 	push	{lr}		; (str lr, [sp, #-4]!)
  189c10:	e59f3018 	ldr	r3, [pc, #24]	; 189c30 <vid_bitmap_refresh+0x24>
  189c14:	e5932000 	ldr	r2, [r3]
  189c18:	e3822003 	orr	r2, r2, #3
  189c1c:	e5832000 	str	r2, [r3]
  189c20:	eb0003ae 	bl	18aae0 <_ScreenLock>
  189c24:	eb0003ae 	bl	18aae4 <_ScreenUnlock>
  189c28:	e49de004 	pop	{lr}		; (ldr lr, [sp], #4)
  189c2c:	e12fff1e 	bx	lr
  189c30:	00007dcc 	.word	0x00007dcc

00189c34 <vid_get_aspect_ratio>:
  189c34:	e3a00000 	mov	r0, #0
  189c38:	e12fff1e 	bx	lr

00189c3c <vid_get_palette_type>:
  189c3c:	e3a00005 	mov	r0, #5
  189c40:	e12fff1e 	bx	lr

00189c44 <vid_get_palette_size>:
  189c44:	e3a00b01 	mov	r0, #1024	; 0x400
  189c48:	e12fff1e 	bx	lr

00189c4c <load_chdk_palette>:
  189c4c:	e52de004 	push	{lr}		; (str lr, [sp, #-4]!)
  189c50:	e59f30a8 	ldr	r3, [pc, #168]	; 189d00 <load_chdk_palette+0xb4>
  189c54:	e5933000 	ldr	r3, [r3]
  189c58:	e3530000 	cmp	r3, #0
  189c5c:	13530005 	cmpne	r3, #5
  189c60:	1a000024 	bne	189cf8 <load_chdk_palette+0xac>
  189c64:	ebffffc2 	bl	189b74 <vid_get_bitmap_active_palette>
  189c68:	e59f3094 	ldr	r3, [pc, #148]	; 189d04 <load_chdk_palette+0xb8>
  189c6c:	e5902380 	ldr	r2, [r0, #896]	; 0x380
  189c70:	e1520003 	cmp	r2, r3
  189c74:	0a00001f 	beq	189cf8 <load_chdk_palette+0xac>
  189c78:	e5803380 	str	r3, [r0, #896]	; 0x380
  189c7c:	e59f3084 	ldr	r3, [pc, #132]	; 189d08 <load_chdk_palette+0xbc>
  189c80:	e5803384 	str	r3, [r0, #900]	; 0x384
  189c84:	e59f3080 	ldr	r3, [pc, #128]	; 189d0c <load_chdk_palette+0xc0>
  189c88:	e5803388 	str	r3, [r0, #904]	; 0x388
  189c8c:	e59f307c 	ldr	r3, [pc, #124]	; 189d10 <load_chdk_palette+0xc4>
  189c90:	e580338c 	str	r3, [r0, #908]	; 0x38c
  189c94:	e59f3078 	ldr	r3, [pc, #120]	; 189d14 <load_chdk_palette+0xc8>
  189c98:	e5803390 	str	r3, [r0, #912]	; 0x390
  189c9c:	e59f3074 	ldr	r3, [pc, #116]	; 189d18 <load_chdk_palette+0xcc>
  189ca0:	e5803394 	str	r3, [r0, #916]	; 0x394
  189ca4:	e59f3070 	ldr	r3, [pc, #112]	; 189d1c <load_chdk_palette+0xd0>
  189ca8:	e5803398 	str	r3, [r0, #920]	; 0x398
  189cac:	e59f306c 	ldr	r3, [pc, #108]	; 189d20 <load_chdk_palette+0xd4>
  189cb0:	e580339c 	str	r3, [r0, #924]	; 0x39c
  189cb4:	e59f3068 	ldr	r3, [pc, #104]	; 189d24 <load_chdk_palette+0xd8>
  189cb8:	e58033a0 	str	r3, [r0, #928]	; 0x3a0
  189cbc:	e59f3064 	ldr	r3, [pc, #100]	; 189d28 <load_chdk_palette+0xdc>
  189cc0:	e58033a4 	str	r3, [r0, #932]	; 0x3a4
  189cc4:	e59f3060 	ldr	r3, [pc, #96]	; 189d2c <load_chdk_palette+0xe0>
  189cc8:	e58033a8 	str	r3, [r0, #936]	; 0x3a8
  189ccc:	e59f305c 	ldr	r3, [pc, #92]	; 189d30 <load_chdk_palette+0xe4>
  189cd0:	e58033ac 	str	r3, [r0, #940]	; 0x3ac
  189cd4:	e59f3058 	ldr	r3, [pc, #88]	; 189d34 <load_chdk_palette+0xe8>
  189cd8:	e58033b0 	str	r3, [r0, #944]	; 0x3b0
  189cdc:	e3a03809 	mov	r3, #589824	; 0x90000
  189ce0:	e58033b4 	str	r3, [r0, #948]	; 0x3b4
  189ce4:	e3a02001 	mov	r2, #1
  189ce8:	e59f3048 	ldr	r3, [pc, #72]	; 189d38 <load_chdk_palette+0xec>
  189cec:	e5c32000 	strb	r2, [r3]
  189cf0:	e49de004 	pop	{lr}		; (ldr lr, [sp], #4)
  189cf4:	eaffffc4 	b	189c0c <vid_bitmap_refresh>
  189cf8:	e49de004 	pop	{lr}		; (ldr lr, [sp], #4)
  189cfc:	e12fff1e 	bx	lr
  189d00:	00007c0c 	.word	0x00007c0c
  189d04:	3f3adf62 	.word	0x3f3adf62
  189d08:	3f26ea40 	.word	0x3f26ea40
  189d0c:	3f4cd57f 	.word	0x3f4cd57f
  189d10:	3f73bfae 	.word	0x3f73bfae
  189d14:	3f4bd6ca 	.word	0x3f4bd6ca
  189d18:	3f95ab95 	.word	0x3f95ab95
  189d1c:	3f4766f0 	.word	0x3f4766f0
  189d20:	3f1250f3 	.word	0x3f1250f3
  189d24:	3f7f408f 	.word	0x3f7f408f
  189d28:	3f512d5b 	.word	0x3f512d5b
  189d2c:	3fa9a917 	.word	0x3fa9a917
  189d30:	3f819137 	.word	0x3f819137
  189d34:	3fded115 	.word	0x3fded115
  189d38:	00007c04 	.word	0x00007c04

00189d3c <CreateTask_spytask>:
  189d3c:	e92d4001 	push	{r0, lr}
  189d40:	e3a03000 	mov	r3, #0
  189d44:	e58d3000 	str	r3, [sp]
  189d48:	e59f0014 	ldr	r0, [pc, #20]	; 189d64 <CreateTask_spytask+0x28>
  189d4c:	e3a01019 	mov	r1, #25
  189d50:	e3a02a02 	mov	r2, #8192	; 0x2000
  189d54:	e59f300c 	ldr	r3, [pc, #12]	; 189d68 <CreateTask_spytask+0x2c>
  189d58:	eb000323 	bl	18a9ec <_CreateTask>
  189d5c:	e8bd4008 	pop	{r3, lr}
  189d60:	e12fff1e 	bx	lr
  189d64:	0019ff9c 	.word	0x0019ff9c
  189d68:	0018cc11 	.word	0x0018cc11

00189d6c <boot>:
  189d6c:	e59f21c8 	ldr	r2, [pc, #456]	; 189f3c <patch_CreateTask_low+0x8>
  189d70:	e59f31c8 	ldr	r3, [pc, #456]	; 189f40 <patch_CreateTask_low+0xc>
  189d74:	e58231fc 	str	r3, [r2, #508]	; 0x1fc
  189d78:	e59f31c4 	ldr	r3, [pc, #452]	; 189f44 <patch_CreateTask_low+0x10>
  189d7c:	ea000001 	b	189d88 <boot+0x1c>
  189d80:	e1a00000 	nop			; (mov r0, r0)
  189d84:	e1a00000 	nop			; (mov r0, r0)
  189d88:	e2533001 	subs	r3, r3, #1
  189d8c:	1afffffb 	bne	189d80 <boot+0x14>
  189d90:	e59f31b0 	ldr	r3, [pc, #432]	; 189f48 <patch_CreateTask_low+0x14>
  189d94:	e58231fc 	str	r3, [r2, #508]	; 0x1fc
  189d98:	e59f31a4 	ldr	r3, [pc, #420]	; 189f44 <patch_CreateTask_low+0x10>
  189d9c:	ea000001 	b	189da8 <boot+0x3c>
  189da0:	e1a00000 	nop			; (mov r0, r0)
  189da4:	e1a00000 	nop			; (mov r0, r0)
  189da8:	e2533001 	subs	r3, r3, #1
  189dac:	1afffffb 	bne	189da0 <boot+0x34>
  189db0:	e59f1550 	ldr	r1, [pc, #1360]	; 18a308 <init_required_fw_features+0x18>
  189db4:	e3a00000 	mov	r0, #0
  189db8:	e5810000 	str	r0, [r1]
  189dbc:	e3a01078 	mov	r1, #120	; 0x78
  189dc0:	ee011f10 	mcr	15, 0, r1, cr1, cr0, {0}
  189dc4:	e3a01000 	mov	r1, #0
  189dc8:	ee071f9a 	mcr	15, 0, r1, cr7, cr10, {4}
  189dcc:	ee071f15 	mcr	15, 0, r1, cr7, cr5, {0}
  189dd0:	ee071f16 	mcr	15, 0, r1, cr7, cr6, {0}
  189dd4:	e3a0003d 	mov	r0, #61	; 0x3d
  189dd8:	ee060f10 	mcr	15, 0, r0, cr6, cr0, {0}
  189ddc:	e3a001bf 	mov	r0, #-1073741777	; 0xc000002f
  189de0:	ee060f11 	mcr	15, 0, r0, cr6, cr1, {0}
  189de4:	e3a00035 	mov	r0, #53	; 0x35
  189de8:	ee060f12 	mcr	15, 0, r0, cr6, cr2, {0}
  189dec:	e3a001d5 	mov	r0, #1073741877	; 0x40000035
  189df0:	ee060f13 	mcr	15, 0, r0, cr6, cr3, {0}
  189df4:	e3a0015e 	mov	r0, #-2147483625	; 0x80000017
  189df8:	ee060f14 	mcr	15, 0, r0, cr6, cr4, {0}
  189dfc:	e59f0508 	ldr	r0, [pc, #1288]	; 18a30c <init_required_fw_features+0x1c>
  189e00:	ee060f15 	mcr	15, 0, r0, cr6, cr5, {0}
  189e04:	e3a00034 	mov	r0, #52	; 0x34
  189e08:	ee020f10 	mcr	15, 0, r0, cr2, cr0, {0}
  189e0c:	e3a00034 	mov	r0, #52	; 0x34
  189e10:	ee020f30 	mcr	15, 0, r0, cr2, cr0, {1}
  189e14:	e3a00034 	mov	r0, #52	; 0x34
  189e18:	ee030f10 	mcr	15, 0, r0, cr3, cr0, {0}
  189e1c:	e59f04ec 	ldr	r0, [pc, #1260]	; 18a310 <init_required_fw_features+0x20>
  189e20:	ee050f50 	mcr	15, 0, r0, cr5, cr0, {2}
  189e24:	e59f04e4 	ldr	r0, [pc, #1252]	; 18a310 <init_required_fw_features+0x20>
  189e28:	ee050f70 	mcr	15, 0, r0, cr5, cr0, {3}
  189e2c:	ee110f10 	mrc	15, 0, r0, cr1, cr0, {0}
  189e30:	e3800a01 	orr	r0, r0, #4096	; 0x1000
  189e34:	e3800004 	orr	r0, r0, #4
  189e38:	e3800001 	orr	r0, r0, #1
  189e3c:	ee010f10 	mcr	15, 0, r0, cr1, cr0, {0}
  189e40:	e3a0111a 	mov	r1, #-2147483642	; 0x80000006
  189e44:	ee091f11 	mcr	15, 0, r1, cr9, cr1, {0}
  189e48:	e3a01006 	mov	r1, #6
  189e4c:	ee091f31 	mcr	15, 0, r1, cr9, cr1, {1}
  189e50:	ee111f10 	mrc	15, 0, r1, cr1, cr0, {0}
  189e54:	e3811805 	orr	r1, r1, #327680	; 0x50000
  189e58:	ee011f10 	mcr	15, 0, r1, cr1, cr0, {0}
  189e5c:	e59f24b0 	ldr	r2, [pc, #1200]	; 18a314 <init_required_fw_features+0x24>
  189e60:	e3a01001 	mov	r1, #1
  189e64:	e582110c 	str	r1, [r2, #268]	; 0x10c
  189e68:	e3e01000 	mvn	r1, #0
  189e6c:	e582100c 	str	r1, [r2, #12]
  189e70:	e582101c 	str	r1, [r2, #28]
  189e74:	e582102c 	str	r1, [r2, #44]	; 0x2c
  189e78:	e582103c 	str	r1, [r2, #60]	; 0x3c
  189e7c:	e582104c 	str	r1, [r2, #76]	; 0x4c
  189e80:	e582105c 	str	r1, [r2, #92]	; 0x5c
  189e84:	e582106c 	str	r1, [r2, #108]	; 0x6c
  189e88:	e582107c 	str	r1, [r2, #124]	; 0x7c
  189e8c:	e582108c 	str	r1, [r2, #140]	; 0x8c
  189e90:	e582109c 	str	r1, [r2, #156]	; 0x9c
  189e94:	e58210ac 	str	r1, [r2, #172]	; 0xac
  189e98:	e58210bc 	str	r1, [r2, #188]	; 0xbc
  189e9c:	e58210cc 	str	r1, [r2, #204]	; 0xcc
  189ea0:	e58210dc 	str	r1, [r2, #220]	; 0xdc
  189ea4:	e58210ec 	str	r1, [r2, #236]	; 0xec
  189ea8:	e58210fc 	str	r1, [r2, #252]	; 0xfc
  189eac:	e59f1464 	ldr	r1, [pc, #1124]	; 18a318 <init_required_fw_features+0x28>
  189eb0:	e59f2464 	ldr	r2, [pc, #1124]	; 18a31c <init_required_fw_features+0x2c>
  189eb4:	e5812000 	str	r2, [r1]
  189eb8:	e3a01001 	mov	r1, #1
  189ebc:	e59f245c 	ldr	r2, [pc, #1116]	; 18a320 <init_required_fw_features+0x30>
  189ec0:	e5812000 	str	r2, [r1]
  189ec4:	e59f2458 	ldr	r2, [pc, #1112]	; 18a324 <init_required_fw_features+0x34>
  189ec8:	e5921000 	ldr	r1, [r2]
  189ecc:	e3811001 	orr	r1, r1, #1
  189ed0:	e5821000 	str	r1, [r2]
  189ed4:	e59f044c 	ldr	r0, [pc, #1100]	; 18a328 <init_required_fw_features+0x38>
  189ed8:	e59f144c 	ldr	r1, [pc, #1100]	; 18a32c <init_required_fw_features+0x3c>
  189edc:	e59f344c 	ldr	r3, [pc, #1100]	; 18a330 <init_required_fw_features+0x40>

00189ee0 <loc_FF82013C>:
  189ee0:	e1510003 	cmp	r1, r3
  189ee4:	34902004 	ldrcc	r2, [r0], #4
  189ee8:	34812004 	strcc	r2, [r1], #4
  189eec:	3afffffb 	bcc	189ee0 <loc_FF82013C>
  189ef0:	e59f043c 	ldr	r0, [pc, #1084]	; 18a334 <init_required_fw_features+0x44>
  189ef4:	e3a01c19 	mov	r1, #6400	; 0x1900
  189ef8:	e59f3438 	ldr	r3, [pc, #1080]	; 18a338 <init_required_fw_features+0x48>

00189efc <loc_FF820158>:
  189efc:	e1510003 	cmp	r1, r3
  189f00:	34902004 	ldrcc	r2, [r0], #4
  189f04:	34812004 	strcc	r2, [r1], #4
  189f08:	3afffffb 	bcc	189efc <loc_FF820158>
  189f0c:	e59f1428 	ldr	r1, [pc, #1064]	; 18a33c <init_required_fw_features+0x4c>
  189f10:	e3a02000 	mov	r2, #0

00189f14 <loc_FF820170>:
  189f14:	e1530001 	cmp	r3, r1
  189f18:	34832004 	strcc	r2, [r3], #4
  189f1c:	3afffffc 	bcc	189f14 <loc_FF820170>
  189f20:	e59f0418 	ldr	r0, [pc, #1048]	; 18a340 <init_required_fw_features+0x50>
  189f24:	e8900006 	ldm	r0, {r1, r2}
  189f28:	e59f0414 	ldr	r0, [pc, #1044]	; 18a344 <init_required_fw_features+0x54>
  189f2c:	e8800006 	stm	r0, {r1, r2}
  189f30:	ea00001d 	b	189fac <sub_FF8203C4_my>

00189f34 <patch_CreateTask_low>:
  189f34:	e51ff004 	ldr	pc, [pc, #-4]	; 189f38 <patch_CreateTask_low+0x4>
  189f38:	00189f4c 	.word	0x00189f4c
  189f3c:	c022d000 	.word	0xc022d000
  189f40:	0093d800 	.word	0x0093d800
  189f44:	00989681 	.word	0x00989681
  189f48:	0083dc00 	.word	0x0083dc00

00189f4c <CreateTask_low_my>:
  189f4c:	e92d0002 	push	{r1}
  189f50:	e59f13f0 	ldr	r1, [pc, #1008]	; 18a348 <init_required_fw_features+0x58>
  189f54:	e1510000 	cmp	r1, r0
  189f58:	059f03ec 	ldreq	r0, [pc, #1004]	; 18a34c <init_required_fw_features+0x5c>
  189f5c:	0a00000e 	beq	189f9c <exitHook>
  189f60:	e59f13e8 	ldr	r1, [pc, #1000]	; 18a350 <init_required_fw_features+0x60>
  189f64:	e1510000 	cmp	r1, r0
  189f68:	059f03e4 	ldreq	r0, [pc, #996]	; 18a354 <init_required_fw_features+0x64>
  189f6c:	0a00000a 	beq	189f9c <exitHook>
  189f70:	e59f13e0 	ldr	r1, [pc, #992]	; 18a358 <init_required_fw_features+0x68>
  189f74:	e1510000 	cmp	r1, r0
  189f78:	059f03dc 	ldreq	r0, [pc, #988]	; 18a35c <init_required_fw_features+0x6c>
  189f7c:	0a000006 	beq	189f9c <exitHook>
  189f80:	e59f13d8 	ldr	r1, [pc, #984]	; 18a360 <init_required_fw_features+0x70>
  189f84:	e1510000 	cmp	r1, r0
  189f88:	059f03d4 	ldreq	r0, [pc, #980]	; 18a364 <init_required_fw_features+0x74>
  189f8c:	0a000002 	beq	189f9c <exitHook>
  189f90:	e59f13d0 	ldr	r1, [pc, #976]	; 18a368 <init_required_fw_features+0x78>
  189f94:	e1510000 	cmp	r1, r0
  189f98:	059f03cc 	ldreq	r0, [pc, #972]	; 18a36c <init_required_fw_features+0x7c>

00189f9c <exitHook>:
  189f9c:	e8bd0002 	pop	{r1}
  189fa0:	e92d41f0 	push	{r4, r5, r6, r7, r8, lr}
  189fa4:	e3530000 	cmp	r3, #0
  189fa8:	e59ff3c0 	ldr	pc, [pc, #960]	; 18a370 <init_required_fw_features+0x80>

00189fac <sub_FF8203C4_my>:
  189fac:	e59f3080 	ldr	r3, [pc, #128]	; 18a034 <loc_FF820420+0x10>
  189fb0:	e5933484 	ldr	r3, [r3, #1156]	; 0x484
  189fb4:	e3130802 	tst	r3, #131072	; 0x20000
  189fb8:	03a02602 	moveq	r2, #2097152	; 0x200000
  189fbc:	13a02501 	movne	r2, #4194304	; 0x400000
  189fc0:	e3a03a02 	mov	r3, #8192	; 0x2000
  189fc4:	e5832a08 	str	r2, [r3, #2568]	; 0xa08
  189fc8:	e59f03a4 	ldr	r0, [pc, #932]	; 18a374 <init_required_fw_features+0x84>
  189fcc:	e3a01000 	mov	r1, #0
  189fd0:	e59f33a0 	ldr	r3, [pc, #928]	; 18a378 <init_required_fw_features+0x88>

00189fd4 <loc_FF8203D0>:
  189fd4:	e1500003 	cmp	r0, r3
  189fd8:	34902004 	ldrcc	r2, [r0], #4
  189fdc:	34812004 	strcc	r2, [r1], #4
  189fe0:	3afffffb 	bcc	189fd4 <loc_FF8203D0>
  189fe4:	e59f038c 	ldr	r0, [pc, #908]	; 18a378 <init_required_fw_features+0x88>
  189fe8:	e3a01d07 	mov	r1, #448	; 0x1c0
  189fec:	e59f3388 	ldr	r3, [pc, #904]	; 18a37c <init_required_fw_features+0x8c>

00189ff0 <loc_FF8203EC>:
  189ff0:	e1500003 	cmp	r0, r3
  189ff4:	34902004 	ldrcc	r2, [r0], #4
  189ff8:	34812004 	strcc	r2, [r1], #4
  189ffc:	3afffffb 	bcc	189ff0 <loc_FF8203EC>
  18a000:	e3a000d2 	mov	r0, #210	; 0xd2
  18a004:	e12ff000 	msr	CPSR_fsxc, r0
  18a008:	e3a0da01 	mov	sp, #4096	; 0x1000
  18a00c:	e3a000d3 	mov	r0, #211	; 0xd3
  18a010:	e12ff000 	msr	CPSR_fsxc, r0
  18a014:	e3a0da01 	mov	sp, #4096	; 0x1000
  18a018:	e3a00fea 	mov	r0, #936	; 0x3a8
  18a01c:	e59f235c 	ldr	r2, [pc, #860]	; 18a380 <init_required_fw_features+0x90>
  18a020:	e3a03a01 	mov	r3, #4096	; 0x1000

0018a024 <loc_FF820420>:
  18a024:	e1500003 	cmp	r0, r3
  18a028:	34802004 	strcc	r2, [r0], #4
  18a02c:	3afffffc 	bcc	18a024 <loc_FF820420>
  18a030:	ea000000 	b	18a038 <sub_FF8228D4_my>
  18a034:	c022f000 	.word	0xc022f000

0018a038 <sub_FF8228D4_my>:
  18a038:	e59f0344 	ldr	r0, [pc, #836]	; 18a384 <init_required_fw_features+0x94>
  18a03c:	e52de004 	push	{lr}		; (str lr, [sp, #-4]!)
  18a040:	e24dd07c 	sub	sp, sp, #124	; 0x7c
  18a044:	e3a01702 	mov	r1, #524288	; 0x80000
  18a048:	e5801000 	str	r1, [r0]
  18a04c:	e59f0334 	ldr	r0, [pc, #820]	; 18a388 <init_required_fw_features+0x98>
  18a050:	e59f1334 	ldr	r1, [pc, #820]	; 18a38c <init_required_fw_features+0x9c>
  18a054:	e5810000 	str	r0, [r1]
  18a058:	e59f1330 	ldr	r1, [pc, #816]	; 18a390 <init_required_fw_features+0xa0>
  18a05c:	e2800a02 	add	r0, r0, #8192	; 0x2000
  18a060:	e5810000 	str	r0, [r1]
  18a064:	e3a01078 	mov	r1, #120	; 0x78
  18a068:	e28d0004 	add	r0, sp, #4
  18a06c:	eb0000e0 	bl	18a3f4 <sub_006BAAF4>
  18a070:	e3a00921 	mov	r0, #540672	; 0x84000
  18a074:	e58d0008 	str	r0, [sp, #8]
  18a078:	e59f0314 	ldr	r0, [pc, #788]	; 18a394 <init_required_fw_features+0xa4>
  18a07c:	e5900000 	ldr	r0, [r0]
  18a080:	e59f2310 	ldr	r2, [pc, #784]	; 18a398 <init_required_fw_features+0xa8>
  18a084:	e58d000c 	str	r0, [sp, #12]
  18a088:	e0420000 	sub	r0, r2, r0
  18a08c:	e58d0010 	str	r0, [sp, #16]
  18a090:	e3a00022 	mov	r0, #34	; 0x22
  18a094:	e58d001c 	str	r0, [sp, #28]
  18a098:	e3a0007c 	mov	r0, #124	; 0x7c
  18a09c:	e58d0020 	str	r0, [sp, #32]
  18a0a0:	e59f12f4 	ldr	r1, [pc, #756]	; 18a39c <init_required_fw_features+0xac>
  18a0a4:	e59f02f4 	ldr	r0, [pc, #756]	; 18a3a0 <init_required_fw_features+0xb0>
  18a0a8:	e58d1004 	str	r1, [sp, #4]
  18a0ac:	e58d0024 	str	r0, [sp, #36]	; 0x24
  18a0b0:	e3a00096 	mov	r0, #150	; 0x96
  18a0b4:	e58d2014 	str	r2, [sp, #20]
  18a0b8:	e58d1018 	str	r1, [sp, #24]
  18a0bc:	e58d0028 	str	r0, [sp, #40]	; 0x28
  18a0c0:	e58d002c 	str	r0, [sp, #44]	; 0x2c
  18a0c4:	e3a00064 	mov	r0, #100	; 0x64
  18a0c8:	e58d0030 	str	r0, [sp, #48]	; 0x30
  18a0cc:	e3a00000 	mov	r0, #0
  18a0d0:	e58d0034 	str	r0, [sp, #52]	; 0x34
  18a0d4:	e58d0038 	str	r0, [sp, #56]	; 0x38
  18a0d8:	e58d003c 	str	r0, [sp, #60]	; 0x3c
  18a0dc:	e3a00010 	mov	r0, #16
  18a0e0:	e58d0060 	str	r0, [sp, #96]	; 0x60
  18a0e4:	e3a00a01 	mov	r0, #4096	; 0x1000
  18a0e8:	e58d0064 	str	r0, [sp, #100]	; 0x64
  18a0ec:	e3a00c01 	mov	r0, #256	; 0x100
  18a0f0:	e58d0068 	str	r0, [sp, #104]	; 0x68
  18a0f4:	e3a00a02 	mov	r0, #8192	; 0x2000
  18a0f8:	e58d006c 	str	r0, [sp, #108]	; 0x6c
  18a0fc:	e59f12a0 	ldr	r1, [pc, #672]	; 18a3a4 <init_required_fw_features+0xb4>
  18a100:	e3a02000 	mov	r2, #0
  18a104:	e28d0004 	add	r0, sp, #4
  18a108:	eb0000b6 	bl	18a3e8 <sub_006B1BC8>
  18a10c:	e28dd07c 	add	sp, sp, #124	; 0x7c
  18a110:	e49df004 	pop	{pc}		; (ldr pc, [sp], #4)

0018a114 <sub_FF8246FC_my>:
  18a114:	e92d4010 	push	{r4, lr}
  18a118:	e59f4288 	ldr	r4, [pc, #648]	; 18a3a8 <init_required_fw_features+0xb8>
  18a11c:	eb0000b5 	bl	18a3f8 <sub_FF820858>
  18a120:	e59f125c 	ldr	r1, [pc, #604]	; 18a384 <init_required_fw_features+0x94>
  18a124:	e59f0280 	ldr	r0, [pc, #640]	; 18a3ac <init_required_fw_features+0xbc>
  18a128:	e5911000 	ldr	r1, [r1]
  18a12c:	e5900000 	ldr	r0, [r0]
  18a130:	e2811010 	add	r1, r1, #16
  18a134:	e1500001 	cmp	r0, r1
  18a138:	359f0270 	ldrcc	r0, [pc, #624]	; 18a3b0 <init_required_fw_features+0xc0>
  18a13c:	3b000282 	blcc	18ab4c <_err_init_task>
  18a140:	eb0000b3 	bl	18a414 <sub_FF8234D8>
  18a144:	e3500000 	cmp	r0, #0
  18a148:	b59f0264 	ldrlt	r0, [pc, #612]	; 18a3b4 <init_required_fw_features+0xc4>
  18a14c:	bb00027e 	bllt	18ab4c <_err_init_task>
  18a150:	eb0000ab 	bl	18a404 <sub_FF8224E8>
  18a154:	e3500000 	cmp	r0, #0
  18a158:	b59f0258 	ldrlt	r0, [pc, #600]	; 18a3b8 <init_required_fw_features+0xc8>
  18a15c:	bb00027a 	bllt	18ab4c <_err_init_task>
  18a160:	e1a00004 	mov	r0, r4
  18a164:	eb0000a7 	bl	18a408 <sub_FF8225C8>
  18a168:	e3500000 	cmp	r0, #0
  18a16c:	b59f0248 	ldrlt	r0, [pc, #584]	; 18a3bc <init_required_fw_features+0xcc>
  18a170:	bb000275 	bllt	18ab4c <_err_init_task>
  18a174:	e1a00004 	mov	r0, r4
  18a178:	eb0000a0 	bl	18a400 <sub_FF822100>
  18a17c:	e3500000 	cmp	r0, #0
  18a180:	b59f0238 	ldrlt	r0, [pc, #568]	; 18a3c0 <init_required_fw_features+0xd0>
  18a184:	bb000270 	bllt	18ab4c <_err_init_task>
  18a188:	eb0000a2 	bl	18a418 <sub_FF82534C>
  18a18c:	e3500000 	cmp	r0, #0
  18a190:	b59f022c 	ldrlt	r0, [pc, #556]	; 18a3c4 <init_required_fw_features+0xd4>
  18a194:	bb00026c 	bllt	18ab4c <_err_init_task>
  18a198:	eb000097 	bl	18a3fc <sub_FF8210A8>
  18a19c:	e3500000 	cmp	r0, #0
  18a1a0:	b59f0220 	ldrlt	r0, [pc, #544]	; 18a3c8 <init_required_fw_features+0xd8>
  18a1a4:	bb000268 	bllt	18ab4c <_err_init_task>
  18a1a8:	e8bd4010 	pop	{r4, lr}
  18a1ac:	eaffffff 	b	18a1b0 <sub_FF8285C0_my>

0018a1b0 <sub_FF8285C0_my>:
  18a1b0:	e92d4008 	push	{r3, lr}
  18a1b4:	eb0000bf 	bl	18a4b8 <sub_FF838500>
  18a1b8:	e3500000 	cmp	r0, #0
  18a1bc:	1a000003 	bne	18a1d0 <loc_FF8285E4>
  18a1c0:	eb0000af 	bl	18a484 <sub_FF82E810>
  18a1c4:	e3500000 	cmp	r0, #0
  18a1c8:	13a00001 	movne	r0, #1
  18a1cc:	1a000000 	bne	18a1d4 <loc_FF8285E8>

0018a1d0 <loc_FF8285E4>:
  18a1d0:	e3a00000 	mov	r0, #0

0018a1d4 <loc_FF8285E8>:
  18a1d4:	eb00009c 	bl	18a44c <sub_FF82A464>
  18a1d8:	e59f11ec 	ldr	r1, [pc, #492]	; 18a3cc <init_required_fw_features+0xdc>
  18a1dc:	e3a00000 	mov	r0, #0
  18a1e0:	eb0000b8 	bl	18a4c8 <sub_FF838A0C>
  18a1e4:	eb000099 	bl	18a450 <sub_FF82A7AC>
  18a1e8:	e3a03000 	mov	r3, #0
  18a1ec:	e58d3000 	str	r3, [sp]
  18a1f0:	e59f31d8 	ldr	r3, [pc, #472]	; 18a3d0 <init_required_fw_features+0xe0>
  18a1f4:	e3a02000 	mov	r2, #0
  18a1f8:	e3a01019 	mov	r1, #25
  18a1fc:	e59f01d0 	ldr	r0, [pc, #464]	; 18a3d4 <init_required_fw_features+0xe4>
  18a200:	eb0001f9 	bl	18a9ec <_CreateTask>
  18a204:	e3a00000 	mov	r0, #0
  18a208:	e8bd8008 	pop	{r3, pc}

0018a20c <task_Startup_my>:
  18a20c:	e92d4010 	push	{r4, lr}
  18a210:	eb00007d 	bl	18a40c <sub_FF822C7C>
  18a214:	eb000098 	bl	18a47c <sub_FF82DDCC>
  18a218:	eb000096 	bl	18a478 <sub_FF82D0E0>
  18a21c:	eb0000a6 	bl	18a4bc <sub_FF83873C>
  18a220:	eb0000a7 	bl	18a4c4 <sub_FF838898>
  18a224:	eb0000a8 	bl	18a4cc <sub_FF838AE0>
  18a228:	eb0000a4 	bl	18a4c0 <sub_FF838778>
  18a22c:	eb00009d 	bl	18a4a8 <sub_FF834724>
  18a230:	eb0000a6 	bl	18a4d0 <sub_FF838AE8>
  18a234:	ebfffec0 	bl	189d3c <CreateTask_spytask>
  18a238:	eb00000b 	bl	18a26c <taskcreatePhySw_my>
  18a23c:	eb00002b 	bl	18a2f0 <init_required_fw_features>
  18a240:	eb000096 	bl	18a4a0 <sub_FF8328DC>
  18a244:	eb0000ca 	bl	18a574 <sub_FF8AD8A8>
  18a248:	eb000081 	bl	18a454 <sub_FF82AFE0>
  18a24c:	eb000087 	bl	18a470 <sub_FF82CC3C>
  18a250:	eb000097 	bl	18a4b4 <sub_FF83830C>
  18a254:	eb000086 	bl	18a474 <sub_FF82D094>
  18a258:	eb000083 	bl	18a46c <sub_FF82CBD0>
  18a25c:	eb00007d 	bl	18a458 <sub_FF82BCF0>
  18a260:	eb000080 	bl	18a468 <sub_FF82CB8C>
  18a264:	e8bd4010 	pop	{r4, lr}
  18a268:	ea000068 	b	18a410 <sub_FF822DCC>

0018a26c <taskcreatePhySw_my>:
  18a26c:	e92d4038 	push	{r3, r4, r5, lr}
  18a270:	eb00008e 	bl	18a4b0 <sub_FF83755C>
  18a274:	eb000081 	bl	18a480 <sub_FF82E748>
  18a278:	e3500000 	cmp	r0, #0
  18a27c:	0b00008a 	bleq	18a4ac <sub_FF8374C4>
  18a280:	e59f4150 	ldr	r4, [pc, #336]	; 18a3d8 <init_required_fw_features+0xe8>
  18a284:	e5940004 	ldr	r0, [r4, #4]
  18a288:	e3500000 	cmp	r0, #0
  18a28c:	1a000007 	bne	18a2b0 <loc_FF82D83C>
  18a290:	e3a03000 	mov	r3, #0
  18a294:	e58d3000 	str	r3, [sp]
  18a298:	e59f313c 	ldr	r3, [pc, #316]	; 18a3dc <init_required_fw_features+0xec>
  18a29c:	e3a02a02 	mov	r2, #8192	; 0x2000
  18a2a0:	e3a01017 	mov	r1, #23
  18a2a4:	e59f0134 	ldr	r0, [pc, #308]	; 18a3e0 <init_required_fw_features+0xf0>
  18a2a8:	eb00005b 	bl	18a41c <sub_FF82661C>
  18a2ac:	e5840004 	str	r0, [r4, #4]

0018a2b0 <loc_FF82D83C>:
  18a2b0:	e8bd8038 	pop	{r3, r4, r5, pc}

0018a2b4 <init_file_modules_task>:
  18a2b4:	e92d4070 	push	{r4, r5, r6, lr}
  18a2b8:	eb0000ab 	bl	18a56c <sub_FF89D768>
  18a2bc:	e59f5120 	ldr	r5, [pc, #288]	; 18a3e4 <init_required_fw_features+0xf4>
  18a2c0:	e1b04000 	movs	r4, r0
  18a2c4:	13a01000 	movne	r1, #0
  18a2c8:	11a00005 	movne	r0, r5
  18a2cc:	1b0001fb 	blne	18aac0 <_PostLogicalEventToUI>
  18a2d0:	eb0000a6 	bl	18a570 <sub_FF89D798>
  18a2d4:	eb005588 	bl	19f8fc <__core_spytask_can_start_from_arm>
  18a2d8:	e3540000 	cmp	r4, #0
  18a2dc:	18bd8070 	popne	{r4, r5, r6, pc}
  18a2e0:	e1a00005 	mov	r0, r5
  18a2e4:	e8bd4070 	pop	{r4, r5, r6, lr}
  18a2e8:	e3a01000 	mov	r1, #0
  18a2ec:	ea0001f3 	b	18aac0 <_PostLogicalEventToUI>

0018a2f0 <init_required_fw_features>:
  18a2f0:	e52de004 	push	{lr}		; (str lr, [sp, #-4]!)
  18a2f4:	eb0002d3 	bl	18ae48 <_init_focus_eventflag>
  18a2f8:	eb0002d3 	bl	18ae4c <_init_nd_eventflag>
  18a2fc:	eb0002d3 	bl	18ae50 <_init_nd_semaphore>
  18a300:	e49de004 	pop	{lr}		; (ldr lr, [sp], #4)
  18a304:	e12fff1e 	bx	lr
  18a308:	c0410000 	.word	0xc0410000
  18a30c:	ff80002d 	.word	0xff80002d
  18a310:	03333330 	.word	0x03333330
  18a314:	c0200000 	.word	0xc0200000
  18a318:	c0400008 	.word	0xc0400008
  18a31c:	00430005 	.word	0x00430005
  18a320:	c0243100 	.word	0xc0243100
  18a324:	c0242010 	.word	0xc0242010
  18a328:	ffcf60b4 	.word	0xffcf60b4
  18a32c:	006b1000 	.word	0x006b1000
  18a330:	006be8da 	.word	0x006be8da
  18a334:	ffce7fc8 	.word	0xffce7fc8
  18a338:	0000f9ec 	.word	0x0000f9ec
  18a33c:	00185cb0 	.word	0x00185cb0
  18a340:	00189f34 	.word	0x00189f34
  18a344:	006b15a4 	.word	0x006b15a4
  18a348:	ff88e214 	.word	0xff88e214
  18a34c:	0018af4c 	.word	0x0018af4c
  18a350:	ff8e79a4 	.word	0xff8e79a4
  18a354:	0018b894 	.word	0x0018b894
  18a358:	ffac8bb8 	.word	0xffac8bb8
  18a35c:	0018c55c 	.word	0x0018c55c
  18a360:	ff9a96dc 	.word	0xff9a96dc
  18a364:	0018c120 	.word	0x0018c120
  18a368:	ff8598a8 	.word	0xff8598a8
  18a36c:	0018a2b4 	.word	0x0018a2b4
  18a370:	006b15ac 	.word	0x006b15ac
  18a374:	ff82043c 	.word	0xff82043c
  18a378:	ff820474 	.word	0xff820474
  18a37c:	ff82065c 	.word	0xff82065c
  18a380:	eeeeeeee 	.word	0xeeeeeeee
  18a384:	00001a5c 	.word	0x00001a5c
  18a388:	40bee980 	.word	0x40bee980
  18a38c:	00001a60 	.word	0x00001a60
  18a390:	00001a64 	.word	0x00001a64
  18a394:	0019ff98 	.word	0x0019ff98
  18a398:	005817b0 	.word	0x005817b0
  18a39c:	0058a000 	.word	0x0058a000
  18a3a0:	000001d3 	.word	0x000001d3
  18a3a4:	0018a114 	.word	0x0018a114
  18a3a8:	ff8247b8 	.word	0xff8247b8
  18a3ac:	000019f0 	.word	0x000019f0
  18a3b0:	ff8247c8 	.word	0xff8247c8
  18a3b4:	ff8247e0 	.word	0xff8247e0
  18a3b8:	ff8247e8 	.word	0xff8247e8
  18a3bc:	ff8247f8 	.word	0xff8247f8
  18a3c0:	ff82480c 	.word	0xff82480c
  18a3c4:	ff824818 	.word	0xff824818
  18a3c8:	ff824824 	.word	0xff824824
  18a3cc:	0060e000 	.word	0x0060e000
  18a3d0:	0018a20c 	.word	0x0018a20c
  18a3d4:	ff82863c 	.word	0xff82863c
  18a3d8:	00001c94 	.word	0x00001c94
  18a3dc:	0019f68c 	.word	0x0019f68c
  18a3e0:	ff82daa8 	.word	0xff82daa8
  18a3e4:	00005006 	.word	0x00005006

0018a3e8 <sub_006B1BC8>:
  18a3e8:	e59ff2f4 	ldr	pc, [pc, #756]	; 18a6e4 <sub_FFAD80B0+0x4>

0018a3ec <sub_006BA828>:
  18a3ec:	e59ff2f4 	ldr	pc, [pc, #756]	; 18a6e8 <sub_FFAD80B0+0x8>

0018a3f0 <sub_006BAA10>:
  18a3f0:	e59ff2f4 	ldr	pc, [pc, #756]	; 18a6ec <sub_FFAD80B0+0xc>

0018a3f4 <sub_006BAAF4>:
  18a3f4:	e59ff2f4 	ldr	pc, [pc, #756]	; 18a6f0 <sub_FFAD80B0+0x10>

0018a3f8 <sub_FF820858>:
  18a3f8:	e59ff2f4 	ldr	pc, [pc, #756]	; 18a6f4 <sub_FFAD80B0+0x14>

0018a3fc <sub_FF8210A8>:
  18a3fc:	e59ff2f4 	ldr	pc, [pc, #756]	; 18a6f8 <sub_FFAD80B0+0x18>

0018a400 <sub_FF822100>:
  18a400:	e59ff2f4 	ldr	pc, [pc, #756]	; 18a6fc <sub_FFAD80B0+0x1c>

0018a404 <sub_FF8224E8>:
  18a404:	e59ff2f4 	ldr	pc, [pc, #756]	; 18a700 <sub_FFAD80B0+0x20>

0018a408 <sub_FF8225C8>:
  18a408:	e59ff2f4 	ldr	pc, [pc, #756]	; 18a704 <sub_FFAD80B0+0x24>

0018a40c <sub_FF822C7C>:
  18a40c:	e59ff2f4 	ldr	pc, [pc, #756]	; 18a708 <sub_FFAD80B0+0x28>

0018a410 <sub_FF822DCC>:
  18a410:	e59ff2f4 	ldr	pc, [pc, #756]	; 18a70c <sub_FFAD80B0+0x2c>

0018a414 <sub_FF8234D8>:
  18a414:	e59ff2f4 	ldr	pc, [pc, #756]	; 18a710 <sub_FFAD80B0+0x30>

0018a418 <sub_FF82534C>:
  18a418:	e59ff2f4 	ldr	pc, [pc, #756]	; 18a714 <sub_FFAD80B0+0x34>

0018a41c <sub_FF82661C>:
  18a41c:	e59ff2f4 	ldr	pc, [pc, #756]	; 18a718 <sub_FFAD80B0+0x38>

0018a420 <sub_FF826774>:
  18a420:	e59ff2f4 	ldr	pc, [pc, #756]	; 18a71c <sub_FFAD80B0+0x3c>

0018a424 <sub_FF826A9C>:
  18a424:	e59ff2f4 	ldr	pc, [pc, #756]	; 18a720 <sub_FFAD80B0+0x40>

0018a428 <sub_FF827BC8>:
  18a428:	e59ff2f4 	ldr	pc, [pc, #756]	; 18a724 <sub_FFAD80B0+0x44>

0018a42c <sub_FF827E74>:
  18a42c:	e59ff2f4 	ldr	pc, [pc, #756]	; 18a728 <sub_FFAD80B0+0x48>

0018a430 <sub_FF8281A4>:
  18a430:	e59ff2f4 	ldr	pc, [pc, #756]	; 18a72c <sub_FFAD80B0+0x4c>

0018a434 <sub_FF829A0C>:
  18a434:	e59ff2f4 	ldr	pc, [pc, #756]	; 18a730 <sub_FFAD80B0+0x50>

0018a438 <sub_FF829AF8>:
  18a438:	e59ff2f4 	ldr	pc, [pc, #756]	; 18a734 <sub_FFAD80B0+0x54>

0018a43c <sub_FF829BC4>:
  18a43c:	e59ff2f4 	ldr	pc, [pc, #756]	; 18a738 <sub_FFAD80B0+0x58>

0018a440 <sub_FF829C0C>:
  18a440:	e59ff2f4 	ldr	pc, [pc, #756]	; 18a73c <sub_FFAD80B0+0x5c>

0018a444 <sub_FF829E30>:
  18a444:	e59ff2f4 	ldr	pc, [pc, #756]	; 18a740 <sub_FFAD80B0+0x60>

0018a448 <sub_FF82A0AC>:
  18a448:	e59ff2f4 	ldr	pc, [pc, #756]	; 18a744 <sub_FFAD80B0+0x64>

0018a44c <sub_FF82A464>:
  18a44c:	e59ff2f4 	ldr	pc, [pc, #756]	; 18a748 <sub_FFAD80B0+0x68>

0018a450 <sub_FF82A7AC>:
  18a450:	e59ff2f4 	ldr	pc, [pc, #756]	; 18a74c <sub_FFAD80B0+0x6c>

0018a454 <sub_FF82AFE0>:
  18a454:	e59ff2f4 	ldr	pc, [pc, #756]	; 18a750 <sub_FFAD80B0+0x70>

0018a458 <sub_FF82BCF0>:
  18a458:	e59ff2f4 	ldr	pc, [pc, #756]	; 18a754 <sub_FFAD80B0+0x74>

0018a45c <sub_FF82C980>:
  18a45c:	e59ff2f4 	ldr	pc, [pc, #756]	; 18a758 <sub_FFAD80B0+0x78>

0018a460 <sub_FF82CAD8>:
  18a460:	e59ff2f4 	ldr	pc, [pc, #756]	; 18a75c <sub_FFAD80B0+0x7c>

0018a464 <sub_FF82CB64>:
  18a464:	e59ff2f4 	ldr	pc, [pc, #756]	; 18a760 <sub_FFAD80B0+0x80>

0018a468 <sub_FF82CB8C>:
  18a468:	e59ff2f4 	ldr	pc, [pc, #756]	; 18a764 <sub_FFAD80B0+0x84>

0018a46c <sub_FF82CBD0>:
  18a46c:	e59ff2f4 	ldr	pc, [pc, #756]	; 18a768 <sub_FFAD80B0+0x88>

0018a470 <sub_FF82CC3C>:
  18a470:	e59ff2f4 	ldr	pc, [pc, #756]	; 18a76c <sub_FFAD80B0+0x8c>

0018a474 <sub_FF82D094>:
  18a474:	e59ff2f4 	ldr	pc, [pc, #756]	; 18a770 <sub_FFAD80B0+0x90>

0018a478 <sub_FF82D0E0>:
  18a478:	e59ff2f4 	ldr	pc, [pc, #756]	; 18a774 <sub_FFAD80B0+0x94>

0018a47c <sub_FF82DDCC>:
  18a47c:	e59ff2f4 	ldr	pc, [pc, #756]	; 18a778 <sub_FFAD80B0+0x98>

0018a480 <sub_FF82E748>:
  18a480:	e59ff2f4 	ldr	pc, [pc, #756]	; 18a77c <sub_FFAD80B0+0x9c>

0018a484 <sub_FF82E810>:
  18a484:	e59ff2f4 	ldr	pc, [pc, #756]	; 18a780 <sub_FFAD80B0+0xa0>

0018a488 <sub_FF82F038>:
  18a488:	e59ff2f4 	ldr	pc, [pc, #756]	; 18a784 <sub_FFAD80B0+0xa4>

0018a48c <sub_FF82F050>:
  18a48c:	e59ff2f4 	ldr	pc, [pc, #756]	; 18a788 <sub_FFAD80B0+0xa8>

0018a490 <sub_FF82F91C>:
  18a490:	e59ff2f4 	ldr	pc, [pc, #756]	; 18a78c <sub_FFAD80B0+0xac>

0018a494 <sub_FF82FFB8>:
  18a494:	e59ff2f4 	ldr	pc, [pc, #756]	; 18a790 <sub_FFAD80B0+0xb0>

0018a498 <sub_FF8300F8>:
  18a498:	e59ff2f4 	ldr	pc, [pc, #756]	; 18a794 <sub_FFAD80B0+0xb4>

0018a49c <sub_FF83222C>:
  18a49c:	e59ff2f4 	ldr	pc, [pc, #756]	; 18a798 <sub_FFAD80B0+0xb8>

0018a4a0 <sub_FF8328DC>:
  18a4a0:	e59ff2f4 	ldr	pc, [pc, #756]	; 18a79c <sub_FFAD80B0+0xbc>

0018a4a4 <sub_FF833F7C>:
  18a4a4:	e59ff2f4 	ldr	pc, [pc, #756]	; 18a7a0 <sub_FFAD80B0+0xc0>

0018a4a8 <sub_FF834724>:
  18a4a8:	e59ff2f4 	ldr	pc, [pc, #756]	; 18a7a4 <sub_FFAD80B0+0xc4>

0018a4ac <sub_FF8374C4>:
  18a4ac:	e59ff2f4 	ldr	pc, [pc, #756]	; 18a7a8 <sub_FFAD80B0+0xc8>

0018a4b0 <sub_FF83755C>:
  18a4b0:	e59ff2f4 	ldr	pc, [pc, #756]	; 18a7ac <sub_FFAD80B0+0xcc>

0018a4b4 <sub_FF83830C>:
  18a4b4:	e59ff2f4 	ldr	pc, [pc, #756]	; 18a7b0 <sub_FFAD80B0+0xd0>

0018a4b8 <sub_FF838500>:
  18a4b8:	e59ff2f4 	ldr	pc, [pc, #756]	; 18a7b4 <sub_FFAD80B0+0xd4>

0018a4bc <sub_FF83873C>:
  18a4bc:	e59ff2f4 	ldr	pc, [pc, #756]	; 18a7b8 <sub_FFAD80B0+0xd8>

0018a4c0 <sub_FF838778>:
  18a4c0:	e59ff2f4 	ldr	pc, [pc, #756]	; 18a7bc <sub_FFAD80B0+0xdc>

0018a4c4 <sub_FF838898>:
  18a4c4:	e59ff2f4 	ldr	pc, [pc, #756]	; 18a7c0 <sub_FFAD80B0+0xe0>

0018a4c8 <sub_FF838A0C>:
  18a4c8:	e59ff2f4 	ldr	pc, [pc, #756]	; 18a7c4 <sub_FFAD80B0+0xe4>

0018a4cc <sub_FF838AE0>:
  18a4cc:	e59ff2f4 	ldr	pc, [pc, #756]	; 18a7c8 <sub_FFAD80B0+0xe8>

0018a4d0 <sub_FF838AE8>:
  18a4d0:	e59ff2f4 	ldr	pc, [pc, #756]	; 18a7cc <sub_FFAD80B0+0xec>

0018a4d4 <sub_FF86EA38>:
  18a4d4:	e59ff2f4 	ldr	pc, [pc, #756]	; 18a7d0 <sub_FFAD80B0+0xf0>

0018a4d8 <sub_FF87F79C>:
  18a4d8:	e59ff2f4 	ldr	pc, [pc, #756]	; 18a7d4 <sub_FFAD80B0+0xf4>

0018a4dc <sub_FF87F7B4>:
  18a4dc:	e59ff2f4 	ldr	pc, [pc, #756]	; 18a7d8 <sub_FFAD80B0+0xf8>

0018a4e0 <sub_FF887A8C>:
  18a4e0:	e59ff2f4 	ldr	pc, [pc, #756]	; 18a7dc <sub_FFAD80B0+0xfc>

0018a4e4 <sub_FF887B18>:
  18a4e4:	e59ff2f4 	ldr	pc, [pc, #756]	; 18a7e0 <sub_FFAD80B0+0x100>

0018a4e8 <sub_FF887CA4>:
  18a4e8:	e59ff2f4 	ldr	pc, [pc, #756]	; 18a7e4 <sub_FFAD80B0+0x104>

0018a4ec <sub_FF88A030>:
  18a4ec:	e59ff2f4 	ldr	pc, [pc, #756]	; 18a7e8 <sub_FFAD80B0+0x108>

0018a4f0 <sub_FF88A928>:
  18a4f0:	e59ff2f4 	ldr	pc, [pc, #756]	; 18a7ec <sub_FFAD80B0+0x10c>

0018a4f4 <sub_FF88AB48>:
  18a4f4:	e59ff2f4 	ldr	pc, [pc, #756]	; 18a7f0 <sub_FFAD80B0+0x110>

0018a4f8 <sub_FF88C004>:
  18a4f8:	e59ff2f4 	ldr	pc, [pc, #756]	; 18a7f4 <sub_FFAD80B0+0x114>

0018a4fc <sub_FF88CEF8>:
  18a4fc:	e59ff2f4 	ldr	pc, [pc, #756]	; 18a7f8 <sub_FFAD80B0+0x118>

0018a500 <sub_FF88D288>:
  18a500:	e59ff2f4 	ldr	pc, [pc, #756]	; 18a7fc <sub_FFAD80B0+0x11c>

0018a504 <sub_FF88D290>:
  18a504:	e59ff2f4 	ldr	pc, [pc, #756]	; 18a800 <sub_FFAD80B0+0x120>

0018a508 <sub_FF88D298>:
  18a508:	e59ff2f4 	ldr	pc, [pc, #756]	; 18a804 <sub_FFAD80B0+0x124>

0018a50c <sub_FF88D2AC>:
  18a50c:	e59ff2f4 	ldr	pc, [pc, #756]	; 18a808 <sub_FFAD80B0+0x128>

0018a510 <sub_FF88D4C8>:
  18a510:	e59ff2f4 	ldr	pc, [pc, #756]	; 18a80c <sub_FFAD80B0+0x12c>

0018a514 <sub_FF88D55C>:
  18a514:	e59ff2f4 	ldr	pc, [pc, #756]	; 18a810 <sub_FFAD80B0+0x130>

0018a518 <sub_FF88D604>:
  18a518:	e59ff2f4 	ldr	pc, [pc, #756]	; 18a814 <sub_FFAD80B0+0x134>

0018a51c <sub_FF88D74C>:
  18a51c:	e59ff2f4 	ldr	pc, [pc, #756]	; 18a818 <sub_FFAD80B0+0x138>

0018a520 <sub_FF88D7D4>:
  18a520:	e59ff2f4 	ldr	pc, [pc, #756]	; 18a81c <sub_FFAD80B0+0x13c>

0018a524 <sub_FF88DBB8>:
  18a524:	e59ff2f4 	ldr	pc, [pc, #756]	; 18a820 <sub_FFAD80B0+0x140>

0018a528 <sub_FF88DFF8>:
  18a528:	e59ff2f4 	ldr	pc, [pc, #756]	; 18a824 <sub_FFAD80B0+0x144>

0018a52c <sub_FF88E060>:
  18a52c:	e59ff2f4 	ldr	pc, [pc, #756]	; 18a828 <sub_FFAD80B0+0x148>

0018a530 <sub_FF88E388>:
  18a530:	e59ff2f4 	ldr	pc, [pc, #756]	; 18a82c <sub_FFAD80B0+0x14c>

0018a534 <sub_FF88E3E4>:
  18a534:	e59ff2f4 	ldr	pc, [pc, #756]	; 18a830 <sub_FFAD80B0+0x150>

0018a538 <sub_FF88F818>:
  18a538:	e59ff2f4 	ldr	pc, [pc, #756]	; 18a834 <sub_FFAD80B0+0x154>

0018a53c <sub_FF8905A0>:
  18a53c:	e59ff2f4 	ldr	pc, [pc, #756]	; 18a838 <sub_FFAD80B0+0x158>

0018a540 <sub_FF890690>:
  18a540:	e59ff2f4 	ldr	pc, [pc, #756]	; 18a83c <sub_FFAD80B0+0x15c>

0018a544 <sub_FF8906E8>:
  18a544:	e59ff2f4 	ldr	pc, [pc, #756]	; 18a840 <sub_FFAD80B0+0x160>

0018a548 <sub_FF890820>:
  18a548:	e59ff2f4 	ldr	pc, [pc, #756]	; 18a844 <sub_FFAD80B0+0x164>

0018a54c <sub_FF890BB8>:
  18a54c:	e59ff2f4 	ldr	pc, [pc, #756]	; 18a848 <sub_FFAD80B0+0x168>

0018a550 <sub_FF892098>:
  18a550:	e59ff2f4 	ldr	pc, [pc, #756]	; 18a84c <sub_FFAD80B0+0x16c>

0018a554 <sub_FF8920F4>:
  18a554:	e59ff2f4 	ldr	pc, [pc, #756]	; 18a850 <sub_FFAD80B0+0x170>

0018a558 <sub_FF892150>:
  18a558:	e59ff2f4 	ldr	pc, [pc, #756]	; 18a854 <sub_FFAD80B0+0x174>

0018a55c <sub_FF89237C>:
  18a55c:	e59ff2f4 	ldr	pc, [pc, #756]	; 18a858 <sub_FFAD80B0+0x178>

0018a560 <sub_FF892778>:
  18a560:	e59ff2f4 	ldr	pc, [pc, #756]	; 18a85c <sub_FFAD80B0+0x17c>

0018a564 <sub_FF893AC8>:
  18a564:	e59ff2f4 	ldr	pc, [pc, #756]	; 18a860 <sub_FFAD80B0+0x180>

0018a568 <sub_FF893AD4>:
  18a568:	e59ff2f4 	ldr	pc, [pc, #756]	; 18a864 <sub_FFAD80B0+0x184>

0018a56c <sub_FF89D768>:
  18a56c:	e59ff2f4 	ldr	pc, [pc, #756]	; 18a868 <sub_FFAD80B0+0x188>

0018a570 <sub_FF89D798>:
  18a570:	e59ff2f4 	ldr	pc, [pc, #756]	; 18a86c <sub_FFAD80B0+0x18c>

0018a574 <sub_FF8AD8A8>:
  18a574:	e59ff2f4 	ldr	pc, [pc, #756]	; 18a870 <sub_FFAD80B0+0x190>

0018a578 <sub_FF8B0664>:
  18a578:	e59ff2f4 	ldr	pc, [pc, #756]	; 18a874 <sub_FFAD80B0+0x194>

0018a57c <sub_FF8C32EC>:
  18a57c:	e59ff2f4 	ldr	pc, [pc, #756]	; 18a878 <sub_FFAD80B0+0x198>

0018a580 <sub_FF8C3658>:
  18a580:	e59ff2f4 	ldr	pc, [pc, #756]	; 18a87c <sub_FFAD80B0+0x19c>

0018a584 <sub_FF8C3FB0>:
  18a584:	e59ff2f4 	ldr	pc, [pc, #756]	; 18a880 <sub_FFAD80B0+0x1a0>

0018a588 <sub_FF8C44D0>:
  18a588:	e59ff2f4 	ldr	pc, [pc, #756]	; 18a884 <sub_FFAD80B0+0x1a4>

0018a58c <sub_FF8C8A5C>:
  18a58c:	e59ff2f4 	ldr	pc, [pc, #756]	; 18a888 <sub_FFAD80B0+0x1a8>

0018a590 <sub_FF8CC134>:
  18a590:	e59ff2f4 	ldr	pc, [pc, #756]	; 18a88c <sub_FFAD80B0+0x1ac>

0018a594 <sub_FF8D64EC>:
  18a594:	e59ff2f4 	ldr	pc, [pc, #756]	; 18a890 <sub_FFAD80B0+0x1b0>

0018a598 <sub_FF8D66CC>:
  18a598:	e59ff2f4 	ldr	pc, [pc, #756]	; 18a894 <sub_FFAD80B0+0x1b4>

0018a59c <sub_FF8D6724>:
  18a59c:	e59ff2f4 	ldr	pc, [pc, #756]	; 18a898 <sub_FFAD80B0+0x1b8>

0018a5a0 <sub_FF8D677C>:
  18a5a0:	e59ff2f4 	ldr	pc, [pc, #756]	; 18a89c <sub_FFAD80B0+0x1bc>

0018a5a4 <sub_FF8D67D4>:
  18a5a4:	e59ff2f4 	ldr	pc, [pc, #756]	; 18a8a0 <sub_FFAD80B0+0x1c0>

0018a5a8 <sub_FF8D686C>:
  18a5a8:	e59ff2f4 	ldr	pc, [pc, #756]	; 18a8a4 <sub_FFAD80B0+0x1c4>

0018a5ac <sub_FF8D69E8>:
  18a5ac:	e59ff2f4 	ldr	pc, [pc, #756]	; 18a8a8 <sub_FFAD80B0+0x1c8>

0018a5b0 <sub_FF8D6AA0>:
  18a5b0:	e59ff2f4 	ldr	pc, [pc, #756]	; 18a8ac <sub_FFAD80B0+0x1cc>

0018a5b4 <sub_FF8D6D6C>:
  18a5b4:	e59ff2f4 	ldr	pc, [pc, #756]	; 18a8b0 <sub_FFAD80B0+0x1d0>

0018a5b8 <sub_FF8D6FAC>:
  18a5b8:	e59ff2f4 	ldr	pc, [pc, #756]	; 18a8b4 <sub_FFAD80B0+0x1d4>

0018a5bc <sub_FF8D72F4>:
  18a5bc:	e59ff2f4 	ldr	pc, [pc, #756]	; 18a8b8 <sub_FFAD80B0+0x1d8>

0018a5c0 <sub_FF8D7524>:
  18a5c0:	e59ff2f4 	ldr	pc, [pc, #756]	; 18a8bc <sub_FFAD80B0+0x1dc>

0018a5c4 <sub_FF8D7AE8>:
  18a5c4:	e59ff2f4 	ldr	pc, [pc, #756]	; 18a8c0 <sub_FFAD80B0+0x1e0>

0018a5c8 <sub_FF8D8050>:
  18a5c8:	e59ff2f4 	ldr	pc, [pc, #756]	; 18a8c4 <sub_FFAD80B0+0x1e4>

0018a5cc <sub_FF8D8164>:
  18a5cc:	e59ff2f4 	ldr	pc, [pc, #756]	; 18a8c8 <sub_FFAD80B0+0x1e8>

0018a5d0 <sub_FF8D83C8>:
  18a5d0:	e59ff2f4 	ldr	pc, [pc, #756]	; 18a8cc <sub_FFAD80B0+0x1ec>

0018a5d4 <sub_FF8D8818>:
  18a5d4:	e59ff2f4 	ldr	pc, [pc, #756]	; 18a8d0 <sub_FFAD80B0+0x1f0>

0018a5d8 <sub_FF8D8930>:
  18a5d8:	e59ff2f4 	ldr	pc, [pc, #756]	; 18a8d4 <sub_FFAD80B0+0x1f4>

0018a5dc <sub_FF8D8CC8>:
  18a5dc:	e59ff2f4 	ldr	pc, [pc, #756]	; 18a8d8 <sub_FFAD80B0+0x1f8>

0018a5e0 <sub_FF8D8F38>:
  18a5e0:	e59ff2f4 	ldr	pc, [pc, #756]	; 18a8dc <sub_FFAD80B0+0x1fc>

0018a5e4 <sub_FF8D9104>:
  18a5e4:	e59ff2f4 	ldr	pc, [pc, #756]	; 18a8e0 <sub_FFAD80B0+0x200>

0018a5e8 <sub_FF8D927C>:
  18a5e8:	e59ff2f4 	ldr	pc, [pc, #756]	; 18a8e4 <sub_FFAD80B0+0x204>

0018a5ec <sub_FF8D949C>:
  18a5ec:	e59ff2f4 	ldr	pc, [pc, #756]	; 18a8e8 <sub_FFAD80B0+0x208>

0018a5f0 <sub_FF8D970C>:
  18a5f0:	e59ff2f4 	ldr	pc, [pc, #756]	; 18a8ec <sub_FFAD80B0+0x20c>

0018a5f4 <sub_FF8DAD5C>:
  18a5f4:	e59ff2f4 	ldr	pc, [pc, #756]	; 18a8f0 <sub_FFAD80B0+0x210>

0018a5f8 <sub_FF8DAFE0>:
  18a5f8:	e59ff2f4 	ldr	pc, [pc, #756]	; 18a8f4 <sub_FFAD80B0+0x214>

0018a5fc <sub_FF8DB050>:
  18a5fc:	e59ff2f4 	ldr	pc, [pc, #756]	; 18a8f8 <sub_FFAD80B0+0x218>

0018a600 <sub_FF8DC8F0>:
  18a600:	e59ff2f4 	ldr	pc, [pc, #756]	; 18a8fc <sub_FFAD80B0+0x21c>

0018a604 <sub_FF8DC954>:
  18a604:	e59ff2f4 	ldr	pc, [pc, #756]	; 18a900 <sub_FFAD80B0+0x220>

0018a608 <sub_FF8DC970>:
  18a608:	e59ff2f4 	ldr	pc, [pc, #756]	; 18a904 <sub_FFAD80B0+0x224>

0018a60c <sub_FF8DC9B4>:
  18a60c:	e59ff2f4 	ldr	pc, [pc, #756]	; 18a908 <sub_FFAD80B0+0x228>

0018a610 <sub_FF8DCAE8>:
  18a610:	e59ff2f4 	ldr	pc, [pc, #756]	; 18a90c <sub_FFAD80B0+0x22c>

0018a614 <sub_FF8DCB94>:
  18a614:	e59ff2f4 	ldr	pc, [pc, #756]	; 18a910 <sub_FFAD80B0+0x230>

0018a618 <sub_FF8DCC3C>:
  18a618:	e59ff2f4 	ldr	pc, [pc, #756]	; 18a914 <sub_FFAD80B0+0x234>

0018a61c <sub_FF8DCE6C>:
  18a61c:	e59ff2f4 	ldr	pc, [pc, #756]	; 18a918 <sub_FFAD80B0+0x238>

0018a620 <sub_FF90CF8C>:
  18a620:	e59ff2f4 	ldr	pc, [pc, #756]	; 18a91c <sub_FFAD80B0+0x23c>

0018a624 <sub_FF90F658>:
  18a624:	e59ff2f4 	ldr	pc, [pc, #756]	; 18a920 <sub_FFAD80B0+0x240>

0018a628 <sub_FF994ED4>:
  18a628:	e59ff2f4 	ldr	pc, [pc, #756]	; 18a924 <sub_FFAD80B0+0x244>

0018a62c <sub_FF994FF8>:
  18a62c:	e59ff2f4 	ldr	pc, [pc, #756]	; 18a928 <sub_FFAD80B0+0x248>

0018a630 <sub_FF995164>:
  18a630:	e59ff2f4 	ldr	pc, [pc, #756]	; 18a92c <sub_FFAD80B0+0x24c>

0018a634 <sub_FF9952A4>:
  18a634:	e59ff2f4 	ldr	pc, [pc, #756]	; 18a930 <sub_FFAD80B0+0x250>

0018a638 <sub_FF995644>:
  18a638:	e59ff2f4 	ldr	pc, [pc, #756]	; 18a934 <sub_FFAD80B0+0x254>

0018a63c <sub_FF9966D4>:
  18a63c:	e59ff2f4 	ldr	pc, [pc, #756]	; 18a938 <sub_FFAD80B0+0x258>

0018a640 <sub_FF9992C0>:
  18a640:	e59ff2f4 	ldr	pc, [pc, #756]	; 18a93c <sub_FFAD80B0+0x25c>

0018a644 <sub_FF9994F8>:
  18a644:	e59ff2f4 	ldr	pc, [pc, #756]	; 18a940 <sub_FFAD80B0+0x260>

0018a648 <sub_FF9995B4>:
  18a648:	e59ff2f4 	ldr	pc, [pc, #756]	; 18a944 <sub_FFAD80B0+0x264>

0018a64c <sub_FF99968C>:
  18a64c:	e59ff2f4 	ldr	pc, [pc, #756]	; 18a948 <sub_FFAD80B0+0x268>

0018a650 <sub_FF99975C>:
  18a650:	e59ff2f4 	ldr	pc, [pc, #756]	; 18a94c <sub_FFAD80B0+0x26c>

0018a654 <sub_FF99979C>:
  18a654:	e59ff2f4 	ldr	pc, [pc, #756]	; 18a950 <sub_FFAD80B0+0x270>

0018a658 <sub_FF9998F4>:
  18a658:	e59ff2f4 	ldr	pc, [pc, #756]	; 18a954 <sub_FFAD80B0+0x274>

0018a65c <sub_FF999A54>:
  18a65c:	e59ff2f4 	ldr	pc, [pc, #756]	; 18a958 <sub_FFAD80B0+0x278>

0018a660 <sub_FF999AF0>:
  18a660:	e59ff2f4 	ldr	pc, [pc, #756]	; 18a95c <sub_FFAD80B0+0x27c>

0018a664 <sub_FF999B9C>:
  18a664:	e59ff2f4 	ldr	pc, [pc, #756]	; 18a960 <sub_FFAD80B0+0x280>

0018a668 <sub_FF999CAC>:
  18a668:	e59ff2f4 	ldr	pc, [pc, #756]	; 18a964 <sub_FFAD80B0+0x284>

0018a66c <sub_FF999D34>:
  18a66c:	e59ff2f4 	ldr	pc, [pc, #756]	; 18a968 <sub_FFAD80B0+0x288>

0018a670 <sub_FF999DC0>:
  18a670:	e59ff2f4 	ldr	pc, [pc, #756]	; 18a96c <sub_FFAD80B0+0x28c>

0018a674 <sub_FF999E38>:
  18a674:	e59ff2f4 	ldr	pc, [pc, #756]	; 18a970 <sub_FFAD80B0+0x290>

0018a678 <sub_FF999EC4>:
  18a678:	e59ff2f4 	ldr	pc, [pc, #756]	; 18a974 <sub_FFAD80B0+0x294>

0018a67c <sub_FF999F5C>:
  18a67c:	e59ff2f4 	ldr	pc, [pc, #756]	; 18a978 <sub_FFAD80B0+0x298>

0018a680 <sub_FF99A2E0>:
  18a680:	e59ff2f4 	ldr	pc, [pc, #756]	; 18a97c <sub_FFAD80B0+0x29c>

0018a684 <sub_FF99A378>:
  18a684:	e59ff2f4 	ldr	pc, [pc, #756]	; 18a980 <sub_FFAD80B0+0x2a0>

0018a688 <sub_FF99A3F4>:
  18a688:	e59ff2f4 	ldr	pc, [pc, #756]	; 18a984 <sub_FFAD80B0+0x2a4>

0018a68c <sub_FF99A48C>:
  18a68c:	e59ff2f4 	ldr	pc, [pc, #756]	; 18a988 <sub_FFAD80B0+0x2a8>

0018a690 <sub_FF99A5BC>:
  18a690:	e59ff2f4 	ldr	pc, [pc, #756]	; 18a98c <sub_FFAD80B0+0x2ac>

0018a694 <sub_FF99A604>:
  18a694:	e59ff2f4 	ldr	pc, [pc, #756]	; 18a990 <sub_FFAD80B0+0x2b0>

0018a698 <sub_FF99AA34>:
  18a698:	e59ff2f4 	ldr	pc, [pc, #756]	; 18a994 <sub_FFAD80B0+0x2b4>

0018a69c <sub_FF99AA50>:
  18a69c:	e59ff2f4 	ldr	pc, [pc, #756]	; 18a998 <sub_FFAD80B0+0x2b8>

0018a6a0 <sub_FF99AB78>:
  18a6a0:	e59ff2f4 	ldr	pc, [pc, #756]	; 18a99c <sub_FFAD80B0+0x2bc>

0018a6a4 <sub_FF99B1A0>:
  18a6a4:	e59ff2f4 	ldr	pc, [pc, #756]	; 18a9a0 <sub_FFAD80B0+0x2c0>

0018a6a8 <sub_FF99B344>:
  18a6a8:	e59ff2f4 	ldr	pc, [pc, #756]	; 18a9a4 <sub_FFAD80B0+0x2c4>

0018a6ac <sub_FF99B80C>:
  18a6ac:	e59ff2f4 	ldr	pc, [pc, #756]	; 18a9a8 <sub_FFAD80B0+0x2c8>

0018a6b0 <sub_FF99B878>:
  18a6b0:	e59ff2f4 	ldr	pc, [pc, #756]	; 18a9ac <sub_FFAD80B0+0x2cc>

0018a6b4 <sub_FF99B8E0>:
  18a6b4:	e59ff2f4 	ldr	pc, [pc, #756]	; 18a9b0 <sub_FFAD80B0+0x2d0>

0018a6b8 <sub_FF99BB58>:
  18a6b8:	e59ff2f4 	ldr	pc, [pc, #756]	; 18a9b4 <sub_FFAD80B0+0x2d4>

0018a6bc <sub_FF99C0E4>:
  18a6bc:	e59ff2f4 	ldr	pc, [pc, #756]	; 18a9b8 <sub_FFAD80B0+0x2d8>

0018a6c0 <sub_FFA29B24>:
  18a6c0:	e59ff2f4 	ldr	pc, [pc, #756]	; 18a9bc <sub_FFAD80B0+0x2dc>

0018a6c4 <sub_FFAB88E4>:
  18a6c4:	e59ff2f4 	ldr	pc, [pc, #756]	; 18a9c0 <sub_FFAD80B0+0x2e0>

0018a6c8 <sub_FFAB8BA0>:
  18a6c8:	e59ff2f4 	ldr	pc, [pc, #756]	; 18a9c4 <sub_FFAD80B0+0x2e4>

0018a6cc <sub_FFAB8BB0>:
  18a6cc:	e59ff2f4 	ldr	pc, [pc, #756]	; 18a9c8 <sub_FFAD80B0+0x2e8>

0018a6d0 <sub_FFAB8CD0>:
  18a6d0:	e59ff2f4 	ldr	pc, [pc, #756]	; 18a9cc <sub_FFAD80B0+0x2ec>

0018a6d4 <sub_FFAD3350>:
  18a6d4:	e59ff2f4 	ldr	pc, [pc, #756]	; 18a9d0 <sub_FFAD80B0+0x2f0>

0018a6d8 <sub_FFAD78EC>:
  18a6d8:	e59ff2f4 	ldr	pc, [pc, #756]	; 18a9d4 <sub_FFAD80B0+0x2f4>

0018a6dc <sub_FFAD7C14>:
  18a6dc:	e59ff2f4 	ldr	pc, [pc, #756]	; 18a9d8 <sub_FFAD80B0+0x2f8>

0018a6e0 <sub_FFAD80B0>:
  18a6e0:	e59ff2f4 	ldr	pc, [pc, #756]	; 18a9dc <sub_FFAD80B0+0x2fc>
  18a6e4:	006b1bc8 	.word	0x006b1bc8
  18a6e8:	006ba828 	.word	0x006ba828
  18a6ec:	006baa10 	.word	0x006baa10
  18a6f0:	006baaf4 	.word	0x006baaf4
  18a6f4:	ff820858 	.word	0xff820858
  18a6f8:	ff8210a8 	.word	0xff8210a8
  18a6fc:	ff822100 	.word	0xff822100
  18a700:	ff8224e8 	.word	0xff8224e8
  18a704:	ff8225c8 	.word	0xff8225c8
  18a708:	ff822c7c 	.word	0xff822c7c
  18a70c:	ff822dcc 	.word	0xff822dcc
  18a710:	ff8234d8 	.word	0xff8234d8
  18a714:	ff82534c 	.word	0xff82534c
  18a718:	ff82661c 	.word	0xff82661c
  18a71c:	ff826774 	.word	0xff826774
  18a720:	ff826a9c 	.word	0xff826a9c
  18a724:	ff827bc8 	.word	0xff827bc8
  18a728:	ff827e74 	.word	0xff827e74
  18a72c:	ff8281a4 	.word	0xff8281a4
  18a730:	ff829a0c 	.word	0xff829a0c
  18a734:	ff829af8 	.word	0xff829af8
  18a738:	ff829bc4 	.word	0xff829bc4
  18a73c:	ff829c0c 	.word	0xff829c0c
  18a740:	ff829e30 	.word	0xff829e30
  18a744:	ff82a0ac 	.word	0xff82a0ac
  18a748:	ff82a464 	.word	0xff82a464
  18a74c:	ff82a7ac 	.word	0xff82a7ac
  18a750:	ff82afe0 	.word	0xff82afe0
  18a754:	ff82bcf0 	.word	0xff82bcf0
  18a758:	ff82c980 	.word	0xff82c980
  18a75c:	ff82cad8 	.word	0xff82cad8
  18a760:	ff82cb64 	.word	0xff82cb64
  18a764:	ff82cb8c 	.word	0xff82cb8c
  18a768:	ff82cbd0 	.word	0xff82cbd0
  18a76c:	ff82cc3c 	.word	0xff82cc3c
  18a770:	ff82d094 	.word	0xff82d094
  18a774:	ff82d0e0 	.word	0xff82d0e0
  18a778:	ff82ddcc 	.word	0xff82ddcc
  18a77c:	ff82e748 	.word	0xff82e748
  18a780:	ff82e810 	.word	0xff82e810
  18a784:	ff82f038 	.word	0xff82f038
  18a788:	ff82f050 	.word	0xff82f050
  18a78c:	ff82f91c 	.word	0xff82f91c
  18a790:	ff82ffb8 	.word	0xff82ffb8
  18a794:	ff8300f8 	.word	0xff8300f8
  18a798:	ff83222c 	.word	0xff83222c
  18a79c:	ff8328dc 	.word	0xff8328dc
  18a7a0:	ff833f7c 	.word	0xff833f7c
  18a7a4:	ff834724 	.word	0xff834724
  18a7a8:	ff8374c4 	.word	0xff8374c4
  18a7ac:	ff83755c 	.word	0xff83755c
  18a7b0:	ff83830c 	.word	0xff83830c
  18a7b4:	ff838500 	.word	0xff838500
  18a7b8:	ff83873c 	.word	0xff83873c
  18a7bc:	ff838778 	.word	0xff838778
  18a7c0:	ff838898 	.word	0xff838898
  18a7c4:	ff838a0c 	.word	0xff838a0c
  18a7c8:	ff838ae0 	.word	0xff838ae0
  18a7cc:	ff838ae8 	.word	0xff838ae8
  18a7d0:	ff86ea38 	.word	0xff86ea38
  18a7d4:	ff87f79c 	.word	0xff87f79c
  18a7d8:	ff87f7b4 	.word	0xff87f7b4
  18a7dc:	ff887a8c 	.word	0xff887a8c
  18a7e0:	ff887b18 	.word	0xff887b18
  18a7e4:	ff887ca4 	.word	0xff887ca4
  18a7e8:	ff88a030 	.word	0xff88a030
  18a7ec:	ff88a928 	.word	0xff88a928
  18a7f0:	ff88ab48 	.word	0xff88ab48
  18a7f4:	ff88c004 	.word	0xff88c004
  18a7f8:	ff88cef8 	.word	0xff88cef8
  18a7fc:	ff88d288 	.word	0xff88d288
  18a800:	ff88d290 	.word	0xff88d290
  18a804:	ff88d298 	.word	0xff88d298
  18a808:	ff88d2ac 	.word	0xff88d2ac
  18a80c:	ff88d4c8 	.word	0xff88d4c8
  18a810:	ff88d55c 	.word	0xff88d55c
  18a814:	ff88d604 	.word	0xff88d604
  18a818:	ff88d74c 	.word	0xff88d74c
  18a81c:	ff88d7d4 	.word	0xff88d7d4
  18a820:	ff88dbb8 	.word	0xff88dbb8
  18a824:	ff88dff8 	.word	0xff88dff8
  18a828:	ff88e060 	.word	0xff88e060
  18a82c:	ff88e388 	.word	0xff88e388
  18a830:	ff88e3e4 	.word	0xff88e3e4
  18a834:	ff88f818 	.word	0xff88f818
  18a838:	ff8905a0 	.word	0xff8905a0
  18a83c:	ff890690 	.word	0xff890690
  18a840:	ff8906e8 	.word	0xff8906e8
  18a844:	ff890820 	.word	0xff890820
  18a848:	ff890bb8 	.word	0xff890bb8
  18a84c:	ff892098 	.word	0xff892098
  18a850:	ff8920f4 	.word	0xff8920f4
  18a854:	ff892150 	.word	0xff892150
  18a858:	ff89237c 	.word	0xff89237c
  18a85c:	ff892778 	.word	0xff892778
  18a860:	ff893ac8 	.word	0xff893ac8
  18a864:	ff893ad4 	.word	0xff893ad4
  18a868:	ff89d768 	.word	0xff89d768
  18a86c:	ff89d798 	.word	0xff89d798
  18a870:	ff8ad8a8 	.word	0xff8ad8a8
  18a874:	ff8b0664 	.word	0xff8b0664
  18a878:	ff8c32ec 	.word	0xff8c32ec
  18a87c:	ff8c3658 	.word	0xff8c3658
  18a880:	ff8c3fb0 	.word	0xff8c3fb0
  18a884:	ff8c44d0 	.word	0xff8c44d0
  18a888:	ff8c8a5c 	.word	0xff8c8a5c
  18a88c:	ff8cc134 	.word	0xff8cc134
  18a890:	ff8d64ec 	.word	0xff8d64ec
  18a894:	ff8d66cc 	.word	0xff8d66cc
  18a898:	ff8d6724 	.word	0xff8d6724
  18a89c:	ff8d677c 	.word	0xff8d677c
  18a8a0:	ff8d67d4 	.word	0xff8d67d4
  18a8a4:	ff8d686c 	.word	0xff8d686c
  18a8a8:	ff8d69e8 	.word	0xff8d69e8
  18a8ac:	ff8d6aa0 	.word	0xff8d6aa0
  18a8b0:	ff8d6d6c 	.word	0xff8d6d6c
  18a8b4:	ff8d6fac 	.word	0xff8d6fac
  18a8b8:	ff8d72f4 	.word	0xff8d72f4
  18a8bc:	ff8d7524 	.word	0xff8d7524
  18a8c0:	ff8d7ae8 	.word	0xff8d7ae8
  18a8c4:	ff8d8050 	.word	0xff8d8050
  18a8c8:	ff8d8164 	.word	0xff8d8164
  18a8cc:	ff8d83c8 	.word	0xff8d83c8
  18a8d0:	ff8d8818 	.word	0xff8d8818
  18a8d4:	ff8d8930 	.word	0xff8d8930
  18a8d8:	ff8d8cc8 	.word	0xff8d8cc8
  18a8dc:	ff8d8f38 	.word	0xff8d8f38
  18a8e0:	ff8d9104 	.word	0xff8d9104
  18a8e4:	ff8d927c 	.word	0xff8d927c
  18a8e8:	ff8d949c 	.word	0xff8d949c
  18a8ec:	ff8d970c 	.word	0xff8d970c
  18a8f0:	ff8dad5c 	.word	0xff8dad5c
  18a8f4:	ff8dafe0 	.word	0xff8dafe0
  18a8f8:	ff8db050 	.word	0xff8db050
  18a8fc:	ff8dc8f0 	.word	0xff8dc8f0
  18a900:	ff8dc954 	.word	0xff8dc954
  18a904:	ff8dc970 	.word	0xff8dc970
  18a908:	ff8dc9b4 	.word	0xff8dc9b4
  18a90c:	ff8dcae8 	.word	0xff8dcae8
  18a910:	ff8dcb94 	.word	0xff8dcb94
  18a914:	ff8dcc3c 	.word	0xff8dcc3c
  18a918:	ff8dce6c 	.word	0xff8dce6c
  18a91c:	ff90cf8c 	.word	0xff90cf8c
  18a920:	ff90f658 	.word	0xff90f658
  18a924:	ff994ed4 	.word	0xff994ed4
  18a928:	ff994ff8 	.word	0xff994ff8
  18a92c:	ff995164 	.word	0xff995164
  18a930:	ff9952a4 	.word	0xff9952a4
  18a934:	ff995644 	.word	0xff995644
  18a938:	ff9966d4 	.word	0xff9966d4
  18a93c:	ff9992c0 	.word	0xff9992c0
  18a940:	ff9994f8 	.word	0xff9994f8
  18a944:	ff9995b4 	.word	0xff9995b4
  18a948:	ff99968c 	.word	0xff99968c
  18a94c:	ff99975c 	.word	0xff99975c
  18a950:	ff99979c 	.word	0xff99979c
  18a954:	ff9998f4 	.word	0xff9998f4
  18a958:	ff999a54 	.word	0xff999a54
  18a95c:	ff999af0 	.word	0xff999af0
  18a960:	ff999b9c 	.word	0xff999b9c
  18a964:	ff999cac 	.word	0xff999cac
  18a968:	ff999d34 	.word	0xff999d34
  18a96c:	ff999dc0 	.word	0xff999dc0
  18a970:	ff999e38 	.word	0xff999e38
  18a974:	ff999ec4 	.word	0xff999ec4
  18a978:	ff999f5c 	.word	0xff999f5c
  18a97c:	ff99a2e0 	.word	0xff99a2e0
  18a980:	ff99a378 	.word	0xff99a378
  18a984:	ff99a3f4 	.word	0xff99a3f4
  18a988:	ff99a48c 	.word	0xff99a48c
  18a98c:	ff99a5bc 	.word	0xff99a5bc
  18a990:	ff99a604 	.word	0xff99a604
  18a994:	ff99aa34 	.word	0xff99aa34
  18a998:	ff99aa50 	.word	0xff99aa50
  18a99c:	ff99ab78 	.word	0xff99ab78
  18a9a0:	ff99b1a0 	.word	0xff99b1a0
  18a9a4:	ff99b344 	.word	0xff99b344
  18a9a8:	ff99b80c 	.word	0xff99b80c
  18a9ac:	ff99b878 	.word	0xff99b878
  18a9b0:	ff99b8e0 	.word	0xff99b8e0
  18a9b4:	ff99bb58 	.word	0xff99bb58
  18a9b8:	ff99c0e4 	.word	0xff99c0e4
  18a9bc:	ffa29b24 	.word	0xffa29b24
  18a9c0:	ffab88e4 	.word	0xffab88e4
  18a9c4:	ffab8ba0 	.word	0xffab8ba0
  18a9c8:	ffab8bb0 	.word	0xffab8bb0
  18a9cc:	ffab8cd0 	.word	0xffab8cd0
  18a9d0:	ffad3350 	.word	0xffad3350
  18a9d4:	ffad78ec 	.word	0xffad78ec
  18a9d8:	ffad7c14 	.word	0xffad7c14
  18a9dc:	ffad80b0 	.word	0xffad80b0

0018a9e0 <uiprop_count>:
  18a9e0:	000000d7 	.word	0x000000d7

0018a9e4 <_AllocateUncacheableMemory>:
  18a9e4:	e59ff218 	ldr	pc, [pc, #536]	; 18ac04 <_GetAdChValue+0x4>

0018a9e8 <_Close>:
  18a9e8:	e59ff218 	ldr	pc, [pc, #536]	; 18ac08 <_GetAdChValue+0x8>

0018a9ec <_CreateTask>:
  18a9ec:	e59ff218 	ldr	pc, [pc, #536]	; 18ac0c <_GetAdChValue+0xc>

0018a9f0 <_DebugAssert>:
  18a9f0:	e59ff218 	ldr	pc, [pc, #536]	; 18ac10 <_GetAdChValue+0x10>

0018a9f4 <_DeleteDirectory_Fut>:
  18a9f4:	e59ff218 	ldr	pc, [pc, #536]	; 18ac14 <_GetAdChValue+0x14>

0018a9f8 <_DoAELock>:
  18a9f8:	e59ff218 	ldr	pc, [pc, #536]	; 18ac18 <_GetAdChValue+0x18>

0018a9fc <_DoAFLock>:
  18a9fc:	e59ff218 	ldr	pc, [pc, #536]	; 18ac1c <_GetAdChValue+0x1c>

0018aa00 <_EnterToCompensationEVF>:
  18aa00:	e59ff218 	ldr	pc, [pc, #536]	; 18ac20 <_GetAdChValue+0x20>

0018aa04 <_ExecuteEventProcedure>:
  18aa04:	e59ff218 	ldr	pc, [pc, #536]	; 18ac24 <_GetAdChValue+0x24>

0018aa08 <_ExitFromCompensationEVF>:
  18aa08:	e59ff218 	ldr	pc, [pc, #536]	; 18ac28 <_GetAdChValue+0x28>

0018aa0c <_ExitTask>:
  18aa0c:	e59ff218 	ldr	pc, [pc, #536]	; 18ac2c <_GetAdChValue+0x2c>

0018aa10 <_ExpCtrlTool_StartContiAE>:
  18aa10:	e59ff218 	ldr	pc, [pc, #536]	; 18ac30 <_GetAdChValue+0x30>

0018aa14 <_ExpCtrlTool_StopContiAE>:
  18aa14:	e59ff218 	ldr	pc, [pc, #536]	; 18ac34 <_GetAdChValue+0x34>

0018aa18 <_Fclose_Fut>:
  18aa18:	e59ff218 	ldr	pc, [pc, #536]	; 18ac38 <_GetAdChValue+0x38>

0018aa1c <_Feof_Fut>:
  18aa1c:	e59ff218 	ldr	pc, [pc, #536]	; 18ac3c <_GetAdChValue+0x3c>

0018aa20 <_Fflush_Fut>:
  18aa20:	e59ff218 	ldr	pc, [pc, #536]	; 18ac40 <_GetAdChValue+0x40>

0018aa24 <_Fgets_Fut>:
  18aa24:	e59ff218 	ldr	pc, [pc, #536]	; 18ac44 <_GetAdChValue+0x44>

0018aa28 <_Fopen_Fut>:
  18aa28:	e59ff218 	ldr	pc, [pc, #536]	; 18ac48 <_GetAdChValue+0x48>

0018aa2c <_Fread_Fut>:
  18aa2c:	e59ff218 	ldr	pc, [pc, #536]	; 18ac4c <_GetAdChValue+0x4c>

0018aa30 <_FreeUncacheableMemory>:
  18aa30:	e59ff218 	ldr	pc, [pc, #536]	; 18ac50 <_GetAdChValue+0x50>

0018aa34 <_Fseek_Fut>:
  18aa34:	e59ff218 	ldr	pc, [pc, #536]	; 18ac54 <_GetAdChValue+0x54>

0018aa38 <_Fwrite_Fut>:
  18aa38:	e59ff218 	ldr	pc, [pc, #536]	; 18ac58 <_GetAdChValue+0x58>

0018aa3c <_GetBatteryTemperature>:
  18aa3c:	e59ff218 	ldr	pc, [pc, #536]	; 18ac5c <_GetAdChValue+0x5c>

0018aa40 <_GetCCDTemperature>:
  18aa40:	e59ff218 	ldr	pc, [pc, #536]	; 18ac60 <_GetAdChValue+0x60>

0018aa44 <_GetCurrentAvValue>:
  18aa44:	e59ff218 	ldr	pc, [pc, #536]	; 18ac64 <_GetAdChValue+0x64>

0018aa48 <_GetDrive_ClusterSize>:
  18aa48:	e59ff218 	ldr	pc, [pc, #536]	; 18ac68 <_GetAdChValue+0x68>

0018aa4c <_GetDrive_FreeClusters>:
  18aa4c:	e59ff218 	ldr	pc, [pc, #536]	; 18ac6c <_GetAdChValue+0x6c>

0018aa50 <_GetDrive_TotalClusters>:
  18aa50:	e59ff218 	ldr	pc, [pc, #536]	; 18ac70 <_GetAdChValue+0x70>

0018aa54 <_GetFocusLensSubjectDistance>:
  18aa54:	e59ff218 	ldr	pc, [pc, #536]	; 18ac74 <_GetAdChValue+0x74>

0018aa58 <_GetImageFolder>:
  18aa58:	e59ff218 	ldr	pc, [pc, #536]	; 18ac78 <_GetAdChValue+0x78>

0018aa5c <_GetKbdState>:
  18aa5c:	e59ff218 	ldr	pc, [pc, #536]	; 18ac7c <_GetAdChValue+0x7c>

0018aa60 <_GetMemInfo>:
  18aa60:	e59ff218 	ldr	pc, [pc, #536]	; 18ac80 <_GetAdChValue+0x80>

0018aa64 <_GetOpticalTemperature>:
  18aa64:	e59ff218 	ldr	pc, [pc, #536]	; 18ac84 <_GetAdChValue+0x84>

0018aa68 <_GetParameterData>:
  18aa68:	e59ff218 	ldr	pc, [pc, #536]	; 18ac88 <_GetAdChValue+0x88>

0018aa6c <_GetPropertyCase>:
  18aa6c:	e59ff218 	ldr	pc, [pc, #536]	; 18ac8c <_GetAdChValue+0x8c>

0018aa70 <_GetSystemTime>:
  18aa70:	e59ff218 	ldr	pc, [pc, #536]	; 18ac90 <_GetAdChValue+0x90>

0018aa74 <_GetVRAMHPixelsSize>:
  18aa74:	e59ff218 	ldr	pc, [pc, #536]	; 18ac94 <_GetAdChValue+0x94>

0018aa78 <_GetVRAMVPixelsSize>:
  18aa78:	e59ff218 	ldr	pc, [pc, #536]	; 18ac98 <_GetAdChValue+0x98>

0018aa7c <_GetZoomLensCurrentPoint>:
  18aa7c:	e59ff218 	ldr	pc, [pc, #536]	; 18ac9c <_GetAdChValue+0x9c>

0018aa80 <_GetZoomLensCurrentPosition>:
  18aa80:	e59ff218 	ldr	pc, [pc, #536]	; 18aca0 <_GetAdChValue+0xa0>

0018aa84 <_GiveSemaphore>:
  18aa84:	e59ff218 	ldr	pc, [pc, #536]	; 18aca4 <_GetAdChValue+0xa4>

0018aa88 <_IsStrobeChargeCompleted>:
  18aa88:	e59ff218 	ldr	pc, [pc, #536]	; 18aca8 <_GetAdChValue+0xa8>

0018aa8c <_LEDDrive>:
  18aa8c:	e59ff218 	ldr	pc, [pc, #536]	; 18acac <_GetAdChValue+0xac>

0018aa90 <_LocalTime>:
  18aa90:	e59ff218 	ldr	pc, [pc, #536]	; 18acb0 <_GetAdChValue+0xb0>

0018aa94 <_LockMainPower>:
  18aa94:	e59ff218 	ldr	pc, [pc, #536]	; 18acb4 <_GetAdChValue+0xb4>

0018aa98 <_MakeSDCardBootable>:
  18aa98:	e59ff218 	ldr	pc, [pc, #536]	; 18acb8 <_GetAdChValue+0xb8>

0018aa9c <_MoveFocusLensToDistance>:
  18aa9c:	e59ff218 	ldr	pc, [pc, #536]	; 18acbc <_GetAdChValue+0xbc>

0018aaa0 <_MoveIrisWithAv>:
  18aaa0:	e59ff218 	ldr	pc, [pc, #536]	; 18acc0 <_GetAdChValue+0xc0>

0018aaa4 <_MoveZoomLensWithPoint>:
  18aaa4:	e59ff218 	ldr	pc, [pc, #536]	; 18acc4 <_GetAdChValue+0xc4>

0018aaa8 <_Open>:
  18aaa8:	e59ff218 	ldr	pc, [pc, #536]	; 18acc8 <_GetAdChValue+0xc8>

0018aaac <_PB2Rec>:
  18aaac:	e59ff218 	ldr	pc, [pc, #536]	; 18accc <_GetAdChValue+0xcc>

0018aab0 <_PT_MoveDigitalZoomToWide>:
  18aab0:	e59ff218 	ldr	pc, [pc, #536]	; 18acd0 <_GetAdChValue+0xd0>

0018aab4 <_PT_MoveOpticalZoomAt>:
  18aab4:	e59ff218 	ldr	pc, [pc, #536]	; 18acd4 <_GetAdChValue+0xd4>

0018aab8 <_PT_PlaySound>:
  18aab8:	e59ff218 	ldr	pc, [pc, #536]	; 18acd8 <_GetAdChValue+0xd8>

0018aabc <_PostLogicalEventForNotPowerType>:
  18aabc:	e59ff218 	ldr	pc, [pc, #536]	; 18acdc <_GetAdChValue+0xdc>

0018aac0 <_PostLogicalEventToUI>:
  18aac0:	e59ff218 	ldr	pc, [pc, #536]	; 18ace0 <_GetAdChValue+0xe0>

0018aac4 <_PutInNdFilter>:
  18aac4:	e59ff218 	ldr	pc, [pc, #536]	; 18ace4 <_GetAdChValue+0xe4>

0018aac8 <_PutOutNdFilter>:
  18aac8:	e59ff218 	ldr	pc, [pc, #536]	; 18ace8 <_GetAdChValue+0xe8>

0018aacc <_Read>:
  18aacc:	e59ff218 	ldr	pc, [pc, #536]	; 18acec <_GetAdChValue+0xec>

0018aad0 <_ReadFastDir>:
  18aad0:	e59ff218 	ldr	pc, [pc, #536]	; 18acf0 <_GetAdChValue+0xf0>

0018aad4 <_Rec2PB>:
  18aad4:	e59ff218 	ldr	pc, [pc, #536]	; 18acf4 <_GetAdChValue+0xf4>

0018aad8 <_RenameFile_Fut>:
  18aad8:	e59ff218 	ldr	pc, [pc, #536]	; 18acf8 <_GetAdChValue+0xf8>

0018aadc <_Restart>:
  18aadc:	e59ff218 	ldr	pc, [pc, #536]	; 18acfc <_GetAdChValue+0xfc>

0018aae0 <_ScreenLock>:
  18aae0:	e59ff218 	ldr	pc, [pc, #536]	; 18ad00 <_GetAdChValue+0x100>

0018aae4 <_ScreenUnlock>:
  18aae4:	e59ff218 	ldr	pc, [pc, #536]	; 18ad04 <_GetAdChValue+0x104>

0018aae8 <_SetAE_ShutterSpeed>:
  18aae8:	e59ff218 	ldr	pc, [pc, #536]	; 18ad08 <_GetAdChValue+0x108>

0018aaec <_SetAutoShutdownTime>:
  18aaec:	e59ff218 	ldr	pc, [pc, #536]	; 18ad0c <_GetAdChValue+0x10c>

0018aaf0 <_SetCurrentCaptureModeType>:
  18aaf0:	e59ff218 	ldr	pc, [pc, #536]	; 18ad10 <_GetAdChValue+0x110>

0018aaf4 <_SetFileAttributes>:
  18aaf4:	e59ff218 	ldr	pc, [pc, #536]	; 18ad14 <_GetAdChValue+0x114>

0018aaf8 <_SetFileTimeStamp>:
  18aaf8:	e59ff218 	ldr	pc, [pc, #536]	; 18ad18 <_GetAdChValue+0x118>

0018aafc <_SetLogicalEventActive>:
  18aafc:	e59ff218 	ldr	pc, [pc, #536]	; 18ad1c <_GetAdChValue+0x11c>

0018ab00 <_SetParameterData>:
  18ab00:	e59ff218 	ldr	pc, [pc, #536]	; 18ad20 <_GetAdChValue+0x120>

0018ab04 <_SetPropertyCase>:
  18ab04:	e59ff218 	ldr	pc, [pc, #536]	; 18ad24 <_GetAdChValue+0x124>

0018ab08 <_SetScriptMode>:
  18ab08:	e59ff218 	ldr	pc, [pc, #536]	; 18ad28 <_GetAdChValue+0x128>

0018ab0c <_SleepTask>:
  18ab0c:	e59ff218 	ldr	pc, [pc, #536]	; 18ad2c <_GetAdChValue+0x12c>

0018ab10 <_TakeSemaphore>:
  18ab10:	e59ff218 	ldr	pc, [pc, #536]	; 18ad30 <_GetAdChValue+0x130>

0018ab14 <_TurnOnDisplay>:
  18ab14:	e59ff218 	ldr	pc, [pc, #536]	; 18ad34 <_GetAdChValue+0x134>

0018ab18 <_TurnOffDisplay>:
  18ab18:	e59ff218 	ldr	pc, [pc, #536]	; 18ad38 <_GetAdChValue+0x138>

0018ab1c <_UIFS_WriteFirmInfoToFile>:
  18ab1c:	e59ff218 	ldr	pc, [pc, #536]	; 18ad3c <_GetAdChValue+0x13c>

0018ab20 <_UnlockAE>:
  18ab20:	e59ff218 	ldr	pc, [pc, #536]	; 18ad40 <_GetAdChValue+0x140>

0018ab24 <_UnlockAF>:
  18ab24:	e59ff218 	ldr	pc, [pc, #536]	; 18ad44 <_GetAdChValue+0x144>

0018ab28 <_UnlockMainPower>:
  18ab28:	e59ff218 	ldr	pc, [pc, #536]	; 18ad48 <_GetAdChValue+0x148>

0018ab2c <_VbattGet>:
  18ab2c:	e59ff218 	ldr	pc, [pc, #536]	; 18ad4c <_GetAdChValue+0x14c>

0018ab30 <_Write>:
  18ab30:	e59ff218 	ldr	pc, [pc, #536]	; 18ad50 <_GetAdChValue+0x150>

0018ab34 <_WriteSDCard>:
  18ab34:	e59ff218 	ldr	pc, [pc, #536]	; 18ad54 <_GetAdChValue+0x154>

0018ab38 <__log>:
  18ab38:	e59ff218 	ldr	pc, [pc, #536]	; 18ad58 <_GetAdChValue+0x158>

0018ab3c <__pow>:
  18ab3c:	e59ff218 	ldr	pc, [pc, #536]	; 18ad5c <_GetAdChValue+0x15c>

0018ab40 <__sqrt>:
  18ab40:	e59ff218 	ldr	pc, [pc, #536]	; 18ad60 <_GetAdChValue+0x160>

0018ab44 <_add_ptp_handler>:
  18ab44:	e59ff218 	ldr	pc, [pc, #536]	; 18ad64 <_GetAdChValue+0x164>

0018ab48 <_apex2us>:
  18ab48:	e59ff218 	ldr	pc, [pc, #536]	; 18ad68 <_GetAdChValue+0x168>

0018ab4c <_err_init_task>:
  18ab4c:	e59ff218 	ldr	pc, [pc, #536]	; 18ad6c <_GetAdChValue+0x16c>

0018ab50 <_exmem_alloc>:
  18ab50:	e59ff218 	ldr	pc, [pc, #536]	; 18ad70 <_GetAdChValue+0x170>

0018ab54 <_exmem_free>:
  18ab54:	e59ff218 	ldr	pc, [pc, #536]	; 18ad74 <_GetAdChValue+0x174>

0018ab58 <_free>:
  18ab58:	e59ff218 	ldr	pc, [pc, #536]	; 18ad78 <_GetAdChValue+0x178>

0018ab5c <_kbd_p1_f>:
  18ab5c:	e59ff218 	ldr	pc, [pc, #536]	; 18ad7c <_GetAdChValue+0x17c>

0018ab60 <_kbd_p1_f_cont>:
  18ab60:	e59ff218 	ldr	pc, [pc, #536]	; 18ad80 <_GetAdChValue+0x180>

0018ab64 <_kbd_p2_f>:
  18ab64:	e59ff218 	ldr	pc, [pc, #536]	; 18ad84 <_GetAdChValue+0x184>

0018ab68 <_kbd_read_keys>:
  18ab68:	e59ff218 	ldr	pc, [pc, #536]	; 18ad88 <_GetAdChValue+0x188>

0018ab6c <_kbd_read_keys_r2>:
  18ab6c:	e59ff218 	ldr	pc, [pc, #536]	; 18ad8c <_GetAdChValue+0x18c>

0018ab70 <_lseek>:
  18ab70:	e59ff218 	ldr	pc, [pc, #536]	; 18ad90 <_GetAdChValue+0x190>

0018ab74 <_malloc>:
  18ab74:	e59ff218 	ldr	pc, [pc, #536]	; 18ad94 <_GetAdChValue+0x194>

0018ab78 <_memcmp>:
  18ab78:	e59ff218 	ldr	pc, [pc, #536]	; 18ad98 <_GetAdChValue+0x198>

0018ab7c <_memcpy>:
  18ab7c:	e59ff218 	ldr	pc, [pc, #536]	; 18ad9c <_GetAdChValue+0x19c>

0018ab80 <_memset>:
  18ab80:	e59ff218 	ldr	pc, [pc, #536]	; 18ada0 <_GetAdChValue+0x1a0>

0018ab84 <_mkdir>:
  18ab84:	e59ff218 	ldr	pc, [pc, #536]	; 18ada4 <_GetAdChValue+0x1a4>

0018ab88 <_mktime_ext>:
  18ab88:	e59ff218 	ldr	pc, [pc, #536]	; 18ada8 <_GetAdChValue+0x1a8>

0018ab8c <_OpenFastDir>:
  18ab8c:	e59ff218 	ldr	pc, [pc, #536]	; 18adac <_GetAdChValue+0x1ac>

0018ab90 <_closedir>:
  18ab90:	e59ff218 	ldr	pc, [pc, #536]	; 18adb0 <_GetAdChValue+0x1b0>

0018ab94 <_get_fstype>:
  18ab94:	e59ff218 	ldr	pc, [pc, #536]	; 18adb4 <_GetAdChValue+0x1b4>

0018ab98 <_qsort>:
  18ab98:	e59ff218 	ldr	pc, [pc, #536]	; 18adb8 <_GetAdChValue+0x1b8>

0018ab9c <_rand>:
  18ab9c:	e59ff218 	ldr	pc, [pc, #536]	; 18adbc <_GetAdChValue+0x1bc>

0018aba0 <_realloc>:
  18aba0:	e59ff218 	ldr	pc, [pc, #536]	; 18adc0 <_GetAdChValue+0x1c0>

0018aba4 <_reboot_fw_update>:
  18aba4:	e59ff218 	ldr	pc, [pc, #536]	; 18adc4 <_GetAdChValue+0x1c4>

0018aba8 <_set_control_event>:
  18aba8:	e59ff218 	ldr	pc, [pc, #536]	; 18adc8 <_GetAdChValue+0x1c8>

0018abac <_srand>:
  18abac:	e59ff218 	ldr	pc, [pc, #536]	; 18adcc <_GetAdChValue+0x1cc>

0018abb0 <_stat>:
  18abb0:	e59ff218 	ldr	pc, [pc, #536]	; 18add0 <_GetAdChValue+0x1d0>

0018abb4 <_strcat>:
  18abb4:	e59ff218 	ldr	pc, [pc, #536]	; 18add4 <_GetAdChValue+0x1d4>

0018abb8 <_strchr>:
  18abb8:	e59ff218 	ldr	pc, [pc, #536]	; 18add8 <_GetAdChValue+0x1d8>

0018abbc <_strcmp>:
  18abbc:	e59ff218 	ldr	pc, [pc, #536]	; 18addc <_GetAdChValue+0x1dc>

0018abc0 <_strcpy>:
  18abc0:	e59ff218 	ldr	pc, [pc, #536]	; 18ade0 <_GetAdChValue+0x1e0>

0018abc4 <_strftime>:
  18abc4:	e59ff218 	ldr	pc, [pc, #536]	; 18ade4 <_GetAdChValue+0x1e4>

0018abc8 <_strlen>:
  18abc8:	e59ff218 	ldr	pc, [pc, #536]	; 18ade8 <_GetAdChValue+0x1e8>

0018abcc <_strncmp>:
  18abcc:	e59ff218 	ldr	pc, [pc, #536]	; 18adec <_GetAdChValue+0x1ec>

0018abd0 <_strncpy>:
  18abd0:	e59ff218 	ldr	pc, [pc, #536]	; 18adf0 <_GetAdChValue+0x1f0>

0018abd4 <_strrchr>:
  18abd4:	e59ff218 	ldr	pc, [pc, #536]	; 18adf4 <_GetAdChValue+0x1f4>

0018abd8 <_strtol>:
  18abd8:	e59ff218 	ldr	pc, [pc, #536]	; 18adf8 <_GetAdChValue+0x1f8>

0018abdc <_strtolx>:
  18abdc:	e59ff218 	ldr	pc, [pc, #536]	; 18adfc <_GetAdChValue+0x1fc>

0018abe0 <_time>:
  18abe0:	e59ff218 	ldr	pc, [pc, #536]	; 18ae00 <_GetAdChValue+0x200>

0018abe4 <_vsprintf>:
  18abe4:	e59ff218 	ldr	pc, [pc, #536]	; 18ae04 <_GetAdChValue+0x204>

0018abe8 <_EngDrvRead>:
  18abe8:	e59ff218 	ldr	pc, [pc, #536]	; 18ae08 <_GetAdChValue+0x208>

0018abec <_PTM_GetCurrentItem>:
  18abec:	e59ff218 	ldr	pc, [pc, #536]	; 18ae0c <_GetAdChValue+0x20c>

0018abf0 <_CancelHPTimer>:
  18abf0:	e59ff218 	ldr	pc, [pc, #536]	; 18ae10 <_GetAdChValue+0x210>

0018abf4 <_SetHPTimerAfterNow>:
  18abf4:	e59ff218 	ldr	pc, [pc, #536]	; 18ae14 <_GetAdChValue+0x214>

0018abf8 <_SS_MFOn>:
  18abf8:	e59ff218 	ldr	pc, [pc, #536]	; 18ae18 <_GetAdChValue+0x218>

0018abfc <_SS_MFOff>:
  18abfc:	e59ff218 	ldr	pc, [pc, #536]	; 18ae1c <_GetAdChValue+0x21c>

0018ac00 <_GetAdChValue>:
  18ac00:	e59ff218 	ldr	pc, [pc, #536]	; 18ae20 <_GetAdChValue+0x220>
  18ac04:	ff825d30 	.word	0xff825d30
  18ac08:	ff827210 	.word	0xff827210
  18ac0c:	006b5714 	.word	0x006b5714
  18ac10:	006b5ac8 	.word	0x006b5ac8
  18ac14:	ff826b04 	.word	0xff826b04
  18ac18:	ff831dbc 	.word	0xff831dbc
  18ac1c:	ff831a70 	.word	0xff831a70
  18ac20:	ff831ce4 	.word	0xff831ce4
  18ac24:	ff833c28 	.word	0xff833c28
  18ac28:	ff831d38 	.word	0xff831d38
  18ac2c:	006b5a68 	.word	0x006b5a68
  18ac30:	ff842648 	.word	0xff842648
  18ac34:	ff842880 	.word	0xff842880
  18ac38:	ff826b9c 	.word	0xff826b9c
  18ac3c:	ff826d88 	.word	0xff826d88
  18ac40:	ff826dc4 	.word	0xff826dc4
  18ac44:	ff826cf0 	.word	0xff826cf0
  18ac48:	ff826b5c 	.word	0xff826b5c
  18ac4c:	ff826c48 	.word	0xff826c48
  18ac50:	ff825d6c 	.word	0xff825d6c
  18ac54:	ff826d3c 	.word	0xff826d3c
  18ac58:	ff826c9c 	.word	0xff826c9c
  18ac5c:	ff86f7dc 	.word	0xff86f7dc
  18ac60:	ff86f764 	.word	0xff86f764
  18ac64:	ff889584 	.word	0xff889584
  18ac68:	ff82fc50 	.word	0xff82fc50
  18ac6c:	ff830400 	.word	0xff830400
  18ac70:	ff8303d4 	.word	0xff8303d4
  18ac74:	ff9a0fbc 	.word	0xff9a0fbc
  18ac78:	ff9844c8 	.word	0xff9844c8
  18ac7c:	ff86bf14 	.word	0xff86bf14
  18ac80:	ff823448 	.word	0xff823448
  18ac84:	ff86f854 	.word	0xff86f854
  18ac88:	ff9c3e14 	.word	0xff9c3e14
  18ac8c:	ff89f494 	.word	0xff89f494
  18ac90:	ffaeb124 	.word	0xffaeb124
  18ac94:	ff84e164 	.word	0xff84e164
  18ac98:	ff84e170 	.word	0xff84e170
  18ac9c:	ff9a3fd8 	.word	0xff9a3fd8
  18aca0:	ffadb804 	.word	0xffadb804
  18aca4:	006b7bb0 	.word	0x006b7bb0
  18aca8:	ff8ce3e8 	.word	0xff8ce3e8
  18acac:	ff9aa520 	.word	0xff9aa520
  18acb0:	006b9ad8 	.word	0x006b9ad8
  18acb4:	ff8a1f40 	.word	0xff8a1f40
  18acb8:	ff830908 	.word	0xff830908
  18acbc:	ffb978c8 	.word	0xffb978c8
  18acc0:	ffae5d6c 	.word	0xffae5d6c
  18acc4:	ffae66c0 	.word	0xffae66c0
  18acc8:	ff8271ac 	.word	0xff8271ac
  18accc:	ff858cf8 	.word	0xff858cf8
  18acd0:	ff9ab690 	.word	0xff9ab690
  18acd4:	ff9ab660 	.word	0xff9ab660
  18acd8:	ff8b0020 	.word	0xff8b0020
  18acdc:	ff8a13e4 	.word	0xff8a13e4
  18ace0:	ff8a143c 	.word	0xff8a143c
  18ace4:	ffae6480 	.word	0xffae6480
  18ace8:	ffae64a4 	.word	0xffae64a4
  18acec:	ff823f04 	.word	0xff823f04
  18acf0:	ffaca21c 	.word	0xffaca21c
  18acf4:	ff857594 	.word	0xff857594
  18acf8:	ff8269fc 	.word	0xff8269fc
  18acfc:	ff836cbc 	.word	0xff836cbc
  18ad00:	ff8a5b54 	.word	0xff8a5b54
  18ad04:	ff8a5ba8 	.word	0xff8a5ba8
  18ad08:	ffb92c34 	.word	0xffb92c34
  18ad0c:	ff8a1fb4 	.word	0xff8a1fb4
  18ad10:	ff8acb78 	.word	0xff8acb78
  18ad14:	ff82770c 	.word	0xff82770c
  18ad18:	ff827694 	.word	0xff827694
  18ad1c:	ff8a1aac 	.word	0xff8a1aac
  18ad20:	ff9c3d78 	.word	0xff9c3d78
  18ad24:	ff89f2b4 	.word	0xff89f2b4
  18ad28:	ff8a1b00 	.word	0xff8a1b00
  18ad2c:	006b8f0c 	.word	0x006b8f0c
  18ad30:	006b7ad4 	.word	0x006b7ad4
  18ad34:	ff866c7c 	.word	0xff866c7c
  18ad38:	ff866c8c 	.word	0xff866c8c
  18ad3c:	ff9e1c40 	.word	0xff9e1c40
  18ad40:	ff831de0 	.word	0xff831de0
  18ad44:	ff831aa0 	.word	0xff831aa0
  18ad48:	ff8a1e98 	.word	0xff8a1e98
  18ad4c:	ff82af1c 	.word	0xff82af1c
  18ad50:	ff827158 	.word	0xff827158
  18ad54:	ff882ed8 	.word	0xff882ed8
  18ad58:	006bdb80 	.word	0x006bdb80
  18ad5c:	006be238 	.word	0x006be238
  18ad60:	006bfed8 	.word	0x006bfed8
  18ad64:	ffa7f0e0 	.word	0xffa7f0e0
  18ad68:	ffa6a7f4 	.word	0xffa6a7f4
  18ad6c:	ff8247d0 	.word	0xff8247d0
  18ad70:	ff83380c 	.word	0xff83380c
  18ad74:	ff833874 	.word	0xff833874
  18ad78:	ff82507c 	.word	0xff82507c
  18ad7c:	ff82c1a4 	.word	0xff82c1a4
  18ad80:	ff82c1b0 	.word	0xff82c1b0
  18ad84:	ff82b8b8 	.word	0xff82b8b8
  18ad88:	ff82c154 	.word	0xff82c154
  18ad8c:	ff86b8c8 	.word	0xff86b8c8
  18ad90:	ff827524 	.word	0xff827524
  18ad94:	ff825024 	.word	0xff825024
  18ad98:	ff824dfc 	.word	0xff824dfc
  18ad9c:	ff8b4218 	.word	0xff8b4218
  18ada0:	ffa2cc80 	.word	0xffa2cc80
  18ada4:	ff8277a4 	.word	0xff8277a4
  18ada8:	ff8b3aa0 	.word	0xff8b3aa0
  18adac:	ffaca0c8 	.word	0xffaca0c8
  18adb0:	ffaca078 	.word	0xffaca078
  18adb4:	ff82fbc8 	.word	0xff82fbc8
  18adb8:	ffb4f8a0 	.word	0xffb4f8a0
  18adbc:	ffa2cc50 	.word	0xffa2cc50
  18adc0:	ffa2ccfc 	.word	0xffa2ccfc
  18adc4:	ffaea7e0 	.word	0xffaea7e0
  18adc8:	ff8a176c 	.word	0xff8a176c
  18adcc:	ffa2cc44 	.word	0xffa2cc44
  18add0:	ff82756c 	.word	0xff82756c
  18add4:	ff837614 	.word	0xff837614
  18add8:	ff83769c 	.word	0xff83769c
  18addc:	ff824ef8 	.word	0xff824ef8
  18ade0:	ff824de4 	.word	0xff824de4
  18ade4:	ff8b3aec 	.word	0xff8b3aec
  18ade8:	ff824f3c 	.word	0xff824f3c
  18adec:	ff837650 	.word	0xff837650
  18adf0:	ff827e84 	.word	0xff827e84
  18adf4:	ff8b4364 	.word	0xff8b4364
  18adf8:	ff837600 	.word	0xff837600
  18adfc:	ff837404 	.word	0xff837404
  18ae00:	006b92ac 	.word	0x006b92ac
  18ae04:	ff827e44 	.word	0xff827e44
  18ae08:	ff82c2b4 	.word	0xff82c2b4
  18ae0c:	ff8a3bbc 	.word	0xff8a3bbc
  18ae10:	ff89bbdc 	.word	0xff89bbdc
  18ae14:	ff89bad4 	.word	0xff89bad4
  18ae18:	ff9ab724 	.word	0xff9ab724
  18ae1c:	ff9ab734 	.word	0xff9ab734
  18ae20:	ff867eac 	.word	0xff867eac

0018ae24 <_DeleteFile_Fut>:
  18ae24:	e59ff038 	ldr	pc, [pc, #56]	; 18ae64 <_open+0x4>

0018ae28 <_GetFocusLensSubjectDistanceFromLens>:
  18ae28:	e59ff038 	ldr	pc, [pc, #56]	; 18ae68 <_open+0x8>

0018ae2c <_MakeDirectory_Fut>:
  18ae2c:	e59ff038 	ldr	pc, [pc, #56]	; 18ae6c <_open+0xc>

0018ae30 <__log10>:
  18ae30:	e59ff038 	ldr	pc, [pc, #56]	; 18ae70 <_open+0x10>

0018ae34 <_RefreshPhysicalScreen>:
  18ae34:	e59ff038 	ldr	pc, [pc, #56]	; 18ae74 <_open+0x14>

0018ae38 <_SetZoomActuatorSpeedPercent>:
  18ae38:	e59ff034 	ldr	pc, [pc, #52]	; 18ae74 <_open+0x14>

0018ae3c <_UnsetZoomForMovie>:
  18ae3c:	e59ff030 	ldr	pc, [pc, #48]	; 18ae74 <_open+0x14>

0018ae40 <_CreateTask_low>:
  18ae40:	e59ff030 	ldr	pc, [pc, #48]	; 18ae78 <_open+0x18>

0018ae44 <_TurnOffE1>:
  18ae44:	e59ff030 	ldr	pc, [pc, #48]	; 18ae7c <_open+0x1c>

0018ae48 <_init_focus_eventflag>:
  18ae48:	e59ff030 	ldr	pc, [pc, #48]	; 18ae80 <_open+0x20>

0018ae4c <_init_nd_eventflag>:
  18ae4c:	e59ff030 	ldr	pc, [pc, #48]	; 18ae84 <_open+0x24>

0018ae50 <_init_nd_semaphore>:
  18ae50:	e59ff030 	ldr	pc, [pc, #48]	; 18ae88 <_open+0x28>

0018ae54 <_TurnOffBackLight>:
  18ae54:	e59ff02c 	ldr	pc, [pc, #44]	; 18ae88 <_open+0x28>

0018ae58 <_TurnOnBackLight>:
  18ae58:	e59ff028 	ldr	pc, [pc, #40]	; 18ae88 <_open+0x28>

0018ae5c <_close>:
  18ae5c:	e59ff024 	ldr	pc, [pc, #36]	; 18ae88 <_open+0x28>

0018ae60 <_open>:
  18ae60:	e59ff020 	ldr	pc, [pc, #32]	; 18ae88 <_open+0x28>
  18ae64:	ff8274a4 	.word	0xff8274a4
  18ae68:	ff98df94 	.word	0xff98df94
  18ae6c:	ff827fb4 	.word	0xff827fb4
  18ae70:	006bb8c8 	.word	0x006bb8c8
  18ae74:	ff83441c 	.word	0xff83441c
  18ae78:	006b15a4 	.word	0x006b15a4
  18ae7c:	ff8381ec 	.word	0xff8381ec
  18ae80:	ffb7ebfc 	.word	0xffb7ebfc
  18ae84:	ffaa8558 	.word	0xffaa8558
  18ae88:	ffad6344 	.word	0xffad6344

0018ae8c <capt_seq_hook_raw_here>:
  18ae8c:	e92d5fff 	push	{r0, r1, r2, r3, r4, r5, r6, r7, r8, r9, sl, fp, ip, lr}
  18ae90:	e59f4024 	ldr	r4, [pc, #36]	; 18aebc <capt_seq_hook_raw_here+0x30>
  18ae94:	e3a03001 	mov	r3, #1
  18ae98:	e5843000 	str	r3, [r4]
  18ae9c:	eb005299 	bl	19f908 <__core_rawdata_available_from_arm>
  18aea0:	ea000001 	b	18aeac <capt_seq_hook_raw_here+0x20>
  18aea4:	e3a0000a 	mov	r0, #10
  18aea8:	ebffff17 	bl	18ab0c <_SleepTask>
  18aeac:	e5943000 	ldr	r3, [r4]
  18aeb0:	e3530002 	cmp	r3, #2
  18aeb4:	1afffffa 	bne	18aea4 <capt_seq_hook_raw_here+0x18>
  18aeb8:	e8bd9fff 	pop	{r0, r1, r2, r3, r4, r5, r6, r7, r8, r9, sl, fp, ip, pc}
  18aebc:	001a9d64 	.word	0x001a9d64

0018aec0 <wait_until_remote_button_is_released>:
  18aec0:	e92d5fff 	push	{r0, r1, r2, r3, r4, r5, r6, r7, r8, r9, sl, fp, ip, lr}
  18aec4:	e10f0000 	mrs	r0, CPSR
  18aec8:	e52d0004 	push	{r0}		; (str r0, [sp, #-4]!)
  18aecc:	e59d0004 	ldr	r0, [sp, #4]
  18aed0:	eb00528f 	bl	19f914 <___wait_until_remote_button_is_released_from_arm>
  18aed4:	e49d0004 	pop	{r0}		; (ldr r0, [sp], #4)
  18aed8:	e12ff000 	msr	CPSR_fsxc, r0
  18aedc:	e8bd5fff 	pop	{r0, r1, r2, r3, r4, r5, r6, r7, r8, r9, sl, fp, ip, lr}
  18aee0:	e12fff1e 	bx	lr

0018aee4 <hook_raw_save_complete>:
  18aee4:	e3a02002 	mov	r2, #2
  18aee8:	e59f3004 	ldr	r3, [pc, #4]	; 18aef4 <hook_raw_save_complete+0x10>
  18aeec:	e5832000 	str	r2, [r3]
  18aef0:	e12fff1e 	bx	lr
  18aef4:	001a9d64 	.word	0x001a9d64

0018aef8 <capt_seq_hook_set_nr>:
  18aef8:	e92d5fff 	push	{r0, r1, r2, r3, r4, r5, r6, r7, r8, r9, sl, fp, ip, lr}
  18aefc:	e59f303c 	ldr	r3, [pc, #60]	; 18af40 <capt_seq_hook_set_nr+0x48>
  18af00:	e5933034 	ldr	r3, [r3, #52]	; 0x34
  18af04:	e3530001 	cmp	r3, #1
  18af08:	0a000003 	beq	18af1c <capt_seq_hook_set_nr+0x24>
  18af0c:	e3530002 	cmp	r3, #2
  18af10:	0a000001 	beq	18af1c <capt_seq_hook_set_nr+0x24>
  18af14:	e3530000 	cmp	r3, #0
  18af18:	1a000001 	bne	18af24 <capt_seq_hook_set_nr+0x2c>
  18af1c:	e59f2020 	ldr	r2, [pc, #32]	; 18af44 <capt_seq_hook_set_nr+0x4c>
  18af20:	e5823000 	str	r3, [r2]
  18af24:	e3a00000 	mov	r0, #0
  18af28:	ebffff2c 	bl	18abe0 <_time>
  18af2c:	e59f4014 	ldr	r4, [pc, #20]	; 18af48 <capt_seq_hook_set_nr+0x50>
  18af30:	e58400ec 	str	r0, [r4, #236]	; 0xec
  18af34:	eb004e6e 	bl	19e8f4 <get_tick_count>
  18af38:	e58400f0 	str	r0, [r4, #240]	; 0xf0
  18af3c:	e8bd9fff 	pop	{r0, r1, r2, r3, r4, r5, r6, r7, r8, r9, sl, fp, ip, pc}
  18af40:	001aaef0 	.word	0x001aaef0
  18af44:	0000a4c8 	.word	0x0000a4c8
  18af48:	001a70cc 	.word	0x001a70cc

0018af4c <capt_seq_task>:
  18af4c:	e92d40f8 	push	{r3, r4, r5, r6, r7, lr}
  18af50:	e59f5884 	ldr	r5, [pc, #2180]	; 18b7dc <loc_FFAD7F14+0x8>
  18af54:	e59f7884 	ldr	r7, [pc, #2180]	; 18b7e0 <loc_FFAD7F14+0xc>
  18af58:	e3a06000 	mov	r6, #0

0018af5c <loc_FF88CA94>:
  18af5c:	e5970004 	ldr	r0, [r7, #4]
  18af60:	e3a02000 	mov	r2, #0
  18af64:	e1a0100d 	mov	r1, sp
  18af68:	ebfffd35 	bl	18a444 <sub_FF829E30>
  18af6c:	e3100001 	tst	r0, #1
  18af70:	0a000005 	beq	18af8c <loc_FF88CAC4>
  18af74:	e59f2868 	ldr	r2, [pc, #2152]	; 18b7e4 <loc_FFAD7F14+0x10>
  18af78:	e59f1868 	ldr	r1, [pc, #2152]	; 18b7e8 <loc_FFAD7F14+0x14>
  18af7c:	e3a00000 	mov	r0, #0
  18af80:	ebfffe9a 	bl	18a9f0 <_DebugAssert>
  18af84:	ebfffea0 	bl	18aa0c <_ExitTask>
  18af88:	e8bd80f8 	pop	{r3, r4, r5, r6, r7, pc}

0018af8c <loc_FF88CAC4>:
  18af8c:	e59d0000 	ldr	r0, [sp]
  18af90:	e5900000 	ldr	r0, [r0]
  18af94:	e3500001 	cmp	r0, #1
  18af98:	13500023 	cmpne	r0, #35	; 0x23
  18af9c:	13500019 	cmpne	r0, #25
  18afa0:	1bfffdc4 	blne	18a6b8 <sub_FF99BB58>
  18afa4:	e59d0000 	ldr	r0, [sp]
  18afa8:	e5901000 	ldr	r1, [r0]
  18afac:	e3510025 	cmp	r1, #37	; 0x25
  18afb0:	308ff101 	addcc	pc, pc, r1, lsl #2
  18afb4:	ea000089 	b	18b1e0 <loc_FF88CD14>
  18afb8:	ea000023 	b	18b04c <loc_FF88CB84>
  18afbc:	ea000029 	b	18b068 <loc_FF88CB9C>
  18afc0:	ea00002b 	b	18b074 <loc_FF88CBA8>
  18afc4:	ea00002f 	b	18b088 <loc_FF88CBBC>
  18afc8:	ea00002c 	b	18b080 <loc_FF88CBB4>
  18afcc:	ea000030 	b	18b094 <loc_FF88CBC8>
  18afd0:	ea000031 	b	18b09c <loc_FF88CBD0>
  18afd4:	ea000032 	b	18b0a4 <loc_FF88CBD8>
  18afd8:	ea000034 	b	18b0b0 <loc_FF88CBE4>
  18afdc:	ea00003e 	b	18b0dc <loc_FF88CC10>
  18afe0:	ea000035 	b	18b0bc <loc_FF88CBF0>
  18afe4:	ea000037 	b	18b0c8 <loc_FF88CBFC>
  18afe8:	ea000038 	b	18b0d0 <loc_FF88CC04>
  18afec:	ea00003c 	b	18b0e4 <loc_FF88CC18>
  18aff0:	ea00003d 	b	18b0ec <loc_FF88CC20>
  18aff4:	ea00003e 	b	18b0f4 <loc_FF88CC28>
  18aff8:	ea00003f 	b	18b0fc <loc_FF88CC30>
  18affc:	ea000040 	b	18b104 <loc_FF88CC38>
  18b000:	ea000042 	b	18b110 <loc_FF88CC44>
  18b004:	ea000043 	b	18b118 <loc_FF88CC4C>
  18b008:	ea000044 	b	18b120 <loc_FF88CC54>
  18b00c:	ea000045 	b	18b128 <loc_FF88CC5C>
  18b010:	ea000046 	b	18b130 <loc_FF88CC64>
  18b014:	ea000047 	b	18b138 <loc_FF88CC6C>
  18b018:	ea000048 	b	18b140 <loc_FF88CC74>
  18b01c:	ea000049 	b	18b148 <loc_FF88CC7C>
  18b020:	ea00004b 	b	18b154 <loc_FF88CC88>
  18b024:	ea00004c 	b	18b15c <loc_FF88CC90>
  18b028:	ea00004d 	b	18b164 <loc_FF88CC98>
  18b02c:	ea00004e 	b	18b16c <loc_FF88CCA0>
  18b030:	ea00004f 	b	18b174 <loc_FF88CCA8>
  18b034:	ea000051 	b	18b180 <loc_FF88CCB4>
  18b038:	ea000052 	b	18b188 <loc_FF88CCBC>
  18b03c:	ea000054 	b	18b194 <loc_FF88CCC8>
  18b040:	ea00005e 	b	18b1c0 <loc_FF88CCF4>
  18b044:	ea000060 	b	18b1cc <loc_FF88CD00>
  18b048:	ea000068 	b	18b1f0 <loc_FF88CD24>

0018b04c <loc_FF88CB84>:
  18b04c:	ebfffd2e 	bl	18a50c <sub_FF88D2AC>
  18b050:	eb0051a7 	bl	19f6f4 <shooting_expo_param_override>
  18b054:	ebfffd24 	bl	18a4ec <sub_FF88A030>
  18b058:	e5950028 	ldr	r0, [r5, #40]	; 0x28
  18b05c:	e3500000 	cmp	r0, #0
  18b060:	1b00006e 	blne	18b220 <sub_FF99AA5C_my>
  18b064:	ea000061 	b	18b1f0 <loc_FF88CD24>

0018b068 <loc_FF88CB9C>:
  18b068:	e5900010 	ldr	r0, [r0, #16]
  18b06c:	eb0000a5 	bl	18b308 <sub_FF99A7E8_my>
  18b070:	ea00005e 	b	18b1f0 <loc_FF88CD24>

0018b074 <loc_FF88CBA8>:
  18b074:	e3a00001 	mov	r0, #1
  18b078:	ebfffd26 	bl	18a518 <sub_FF88D604>
  18b07c:	ea00005b 	b	18b1f0 <loc_FF88CD24>

0018b080 <loc_FF88CBB4>:
  18b080:	ebfffd1d 	bl	18a4fc <sub_FF88CEF8>
  18b084:	ea000000 	b	18b08c <loc_FF88CBC0>

0018b088 <loc_FF88CBBC>:
  18b088:	ebfffd1c 	bl	18a500 <sub_FF88D288>

0018b08c <loc_FF88CBC0>:
  18b08c:	e5856028 	str	r6, [r5, #40]	; 0x28
  18b090:	ea000056 	b	18b1f0 <loc_FF88CD24>

0018b094 <loc_FF88CBC8>:
  18b094:	ebfffd1a 	bl	18a504 <sub_FF88D290>
  18b098:	ea000054 	b	18b1f0 <loc_FF88CD24>

0018b09c <loc_FF88CBD0>:
  18b09c:	ebfffd1b 	bl	18a510 <sub_FF88D4C8>
  18b0a0:	ea000003 	b	18b0b4 <loc_FF88CBE8>

0018b0a4 <loc_FF88CBD8>:
  18b0a4:	e5900010 	ldr	r0, [r0, #16]
  18b0a8:	ebfffd7c 	bl	18a6a0 <sub_FF99AB78>
  18b0ac:	ea00004f 	b	18b1f0 <loc_FF88CD24>

0018b0b0 <loc_FF88CBE4>:
  18b0b0:	ebfffd17 	bl	18a514 <sub_FF88D55C>

0018b0b4 <loc_FF88CBE8>:
  18b0b4:	ebfffd0c 	bl	18a4ec <sub_FF88A030>
  18b0b8:	ea00004c 	b	18b1f0 <loc_FF88CD24>

0018b0bc <loc_FF88CBF0>:
  18b0bc:	e5950054 	ldr	r0, [r5, #84]	; 0x54
  18b0c0:	ebfffd17 	bl	18a524 <sub_FF88DBB8>
  18b0c4:	ea000049 	b	18b1f0 <loc_FF88CD24>

0018b0c8 <loc_FF88CBFC>:
  18b0c8:	ebfffd16 	bl	18a528 <sub_FF88DFF8>
  18b0cc:	ea000047 	b	18b1f0 <loc_FF88CD24>

0018b0d0 <loc_FF88CC04>:
  18b0d0:	e590000c 	ldr	r0, [r0, #12]
  18b0d4:	ebfffd14 	bl	18a52c <sub_FF88E060>
  18b0d8:	ea000044 	b	18b1f0 <loc_FF88CD24>

0018b0dc <loc_FF88CC10>:
  18b0dc:	ebfffd07 	bl	18a500 <sub_FF88D288>
  18b0e0:	ea000042 	b	18b1f0 <loc_FF88CD24>

0018b0e4 <loc_FF88CC18>:
  18b0e4:	ebfffd55 	bl	18a640 <sub_FF9992C0>
  18b0e8:	ea000040 	b	18b1f0 <loc_FF88CD24>

0018b0ec <loc_FF88CC20>:
  18b0ec:	ebfffd54 	bl	18a644 <sub_FF9994F8>
  18b0f0:	ea00003e 	b	18b1f0 <loc_FF88CD24>

0018b0f4 <loc_FF88CC28>:
  18b0f4:	ebfffd53 	bl	18a648 <sub_FF9995B4>
  18b0f8:	ea00003c 	b	18b1f0 <loc_FF88CD24>

0018b0fc <loc_FF88CC30>:
  18b0fc:	ebfffd52 	bl	18a64c <sub_FF99968C>
  18b100:	ea00003a 	b	18b1f0 <loc_FF88CD24>

0018b104 <loc_FF88CC38>:
  18b104:	e3a00000 	mov	r0, #0
  18b108:	ebfffd52 	bl	18a658 <sub_FF9998F4>
  18b10c:	ea000037 	b	18b1f0 <loc_FF88CD24>

0018b110 <loc_FF88CC44>:
  18b110:	ebfffd51 	bl	18a65c <sub_FF999A54>
  18b114:	ea000035 	b	18b1f0 <loc_FF88CD24>

0018b118 <loc_FF88CC4C>:
  18b118:	ebfffd11 	bl	18a564 <sub_FF893AC8>
  18b11c:	ea000033 	b	18b1f0 <loc_FF88CD24>

0018b120 <loc_FF88CC54>:
  18b120:	ebfffd10 	bl	18a568 <sub_FF893AD4>
  18b124:	ea000031 	b	18b1f0 <loc_FF88CD24>

0018b128 <loc_FF88CC5C>:
  18b128:	ebfffd4c 	bl	18a660 <sub_FF999AF0>
  18b12c:	ea00002f 	b	18b1f0 <loc_FF88CD24>

0018b130 <loc_FF88CC64>:
  18b130:	ebfffd4b 	bl	18a664 <sub_FF999B9C>
  18b134:	ea00002d 	b	18b1f0 <loc_FF88CD24>

0018b138 <loc_FF88CC6C>:
  18b138:	ebfffcf7 	bl	18a51c <sub_FF88D74C>
  18b13c:	ea00002b 	b	18b1f0 <loc_FF88CD24>

0018b140 <loc_FF88CC74>:
  18b140:	e3a00000 	mov	r0, #0
  18b144:	ea000000 	b	18b14c <loc_FF88CC80>

0018b148 <loc_FF88CC7C>:
  18b148:	e590000c 	ldr	r0, [r0, #12]

0018b14c <loc_FF88CC80>:
  18b14c:	ebfffcf3 	bl	18a520 <sub_FF88D7D4>
  18b150:	ea000026 	b	18b1f0 <loc_FF88CD24>

0018b154 <loc_FF88CC88>:
  18b154:	ebfffd3d 	bl	18a650 <sub_FF99975C>
  18b158:	ea000024 	b	18b1f0 <loc_FF88CD24>

0018b15c <loc_FF88CC90>:
  18b15c:	ebfffd3c 	bl	18a654 <sub_FF99979C>
  18b160:	ea000022 	b	18b1f0 <loc_FF88CD24>

0018b164 <loc_FF88CC98>:
  18b164:	ebfffcf4 	bl	18a53c <sub_FF8905A0>
  18b168:	ea000020 	b	18b1f0 <loc_FF88CD24>

0018b16c <loc_FF88CCA0>:
  18b16c:	ebfffcf3 	bl	18a540 <sub_FF890690>
  18b170:	ea00001e 	b	18b1f0 <loc_FF88CD24>

0018b174 <loc_FF88CCA8>:
  18b174:	e590000c 	ldr	r0, [r0, #12]
  18b178:	ebfffd3a 	bl	18a668 <sub_FF999CAC>
  18b17c:	ea00001b 	b	18b1f0 <loc_FF88CD24>

0018b180 <loc_FF88CCB4>:
  18b180:	ebfffd39 	bl	18a66c <sub_FF999D34>
  18b184:	ea000019 	b	18b1f0 <loc_FF88CD24>

0018b188 <loc_FF88CCBC>:
  18b188:	ebfffcee 	bl	18a548 <sub_FF890820>
  18b18c:	ebfffcec 	bl	18a544 <sub_FF8906E8>
  18b190:	ea000016 	b	18b1f0 <loc_FF88CD24>

0018b194 <loc_FF88CCC8>:
  18b194:	ebfffcf1 	bl	18a560 <sub_FF892778>
  18b198:	e59f064c 	ldr	r0, [pc, #1612]	; 18b7ec <loc_FFAD7F14+0x18>
  18b19c:	e1d009bc 	ldrh	r0, [r0, #156]	; 0x9c
  18b1a0:	e3500004 	cmp	r0, #4
  18b1a4:	11d500b0 	ldrhne	r0, [r5]
  18b1a8:	12401c82 	subne	r1, r0, #33280	; 0x8200
  18b1ac:	12511036 	subsne	r1, r1, #54	; 0x36
  18b1b0:	1a00000e 	bne	18b1f0 <loc_FF88CD24>
  18b1b4:	ebfffce1 	bl	18a540 <sub_FF890690>
  18b1b8:	ebfffce3 	bl	18a54c <sub_FF890BB8>
  18b1bc:	ea00000b 	b	18b1f0 <loc_FF88CD24>

0018b1c0 <loc_FF88CCF4>:
  18b1c0:	e3a02000 	mov	r2, #0
  18b1c4:	e3a01011 	mov	r1, #17
  18b1c8:	ea000001 	b	18b1d4 <loc_FF88CD08>

0018b1cc <loc_FF88CD00>:
  18b1cc:	e3a02000 	mov	r2, #0
  18b1d0:	e3a01010 	mov	r1, #16

0018b1d4 <loc_FF88CD08>:
  18b1d4:	e3a00000 	mov	r0, #0
  18b1d8:	ebfffcc5 	bl	18a4f4 <sub_FF88AB48>
  18b1dc:	ea000003 	b	18b1f0 <loc_FF88CD24>

0018b1e0 <loc_FF88CD14>:
  18b1e0:	e59f2608 	ldr	r2, [pc, #1544]	; 18b7f0 <loc_FFAD7F14+0x1c>
  18b1e4:	e59f15fc 	ldr	r1, [pc, #1532]	; 18b7e8 <loc_FFAD7F14+0x14>
  18b1e8:	e3a00000 	mov	r0, #0
  18b1ec:	ebfffdff 	bl	18a9f0 <_DebugAssert>

0018b1f0 <loc_FF88CD24>:
  18b1f0:	e59d0000 	ldr	r0, [sp]
  18b1f4:	e5901004 	ldr	r1, [r0, #4]
  18b1f8:	e5970000 	ldr	r0, [r7]
  18b1fc:	ebfffc8e 	bl	18a43c <sub_FF829BC4>
  18b200:	e59d4000 	ldr	r4, [sp]
  18b204:	e5940008 	ldr	r0, [r4, #8]
  18b208:	e3500000 	cmp	r0, #0
  18b20c:	059f15d4 	ldreq	r1, [pc, #1492]	; 18b7e8 <loc_FFAD7F14+0x14>
  18b210:	03a02f49 	moveq	r2, #292	; 0x124
  18b214:	0bfffdf5 	bleq	18a9f0 <_DebugAssert>
  18b218:	e5846008 	str	r6, [r4, #8]
  18b21c:	eaffff4e 	b	18af5c <loc_FF88CA94>

0018b220 <sub_FF99AA5C_my>:
  18b220:	e92d40f8 	push	{r3, r4, r5, r6, r7, lr}
  18b224:	ebfffcb3 	bl	18a4f8 <sub_FF88C004>
  18b228:	e1a04000 	mov	r4, r0
  18b22c:	e3a0000c 	mov	r0, #12
  18b230:	ebfffcc6 	bl	18a550 <sub_FF892098>
  18b234:	e59f65b8 	ldr	r6, [pc, #1464]	; 18b7f4 <loc_FFAD7F14+0x20>
  18b238:	e3100001 	tst	r0, #1
  18b23c:	e3a05001 	mov	r5, #1
  18b240:	1a00002b 	bne	18b2f4 <loc_FF99AB30>
  18b244:	ebfffcc2 	bl	18a554 <sub_FF8920F4>
  18b248:	e3100001 	tst	r0, #1
  18b24c:	1a000028 	bne	18b2f4 <loc_FF99AB30>
  18b250:	e3a02002 	mov	r2, #2
  18b254:	e1a0100d 	mov	r1, sp
  18b258:	e2850f42 	add	r0, r5, #264	; 0x108
  18b25c:	ebfffe02 	bl	18aa6c <_GetPropertyCase>
  18b260:	e3100001 	tst	r0, #1
  18b264:	12852f5d 	addne	r2, r5, #372	; 0x174
  18b268:	159f1588 	ldrne	r1, [pc, #1416]	; 18b7f8 <loc_FFAD7F14+0x24>
  18b26c:	13a00000 	movne	r0, #0
  18b270:	1bfffdde 	blne	18a9f0 <_DebugAssert>
  18b274:	e1dd00f0 	ldrsh	r0, [sp]
  18b278:	ebfffc79 	bl	18a464 <sub_FF82CB64>
  18b27c:	ebfffc76 	bl	18a45c <sub_FF82C980>
  18b280:	e3500001 	cmp	r0, #1
  18b284:	9a00001c 	bls	18b2fc <loc_FF99AB38>
  18b288:	e3a00000 	mov	r0, #0
  18b28c:	ebfffc73 	bl	18a460 <sub_FF82CAD8>
  18b290:	ebfffc9c 	bl	18a508 <sub_FF88D298>
  18b294:	ebfffca5 	bl	18a530 <sub_FF88E388>
  18b298:	e1a01004 	mov	r1, r4
  18b29c:	ebfffca4 	bl	18a534 <sub_FF88E3E4>
  18b2a0:	e59f0554 	ldr	r0, [pc, #1364]	; 18b7fc <loc_FFAD7F14+0x28>
  18b2a4:	e3a02004 	mov	r2, #4
  18b2a8:	e2841030 	add	r1, r4, #48	; 0x30
  18b2ac:	ebfffe14 	bl	18ab04 <_SetPropertyCase>
  18b2b0:	e3a02004 	mov	r2, #4
  18b2b4:	e2841034 	add	r1, r4, #52	; 0x34
  18b2b8:	e3a0002c 	mov	r0, #44	; 0x2c
  18b2bc:	ebfffe10 	bl	18ab04 <_SetPropertyCase>
  18b2c0:	e3a02004 	mov	r2, #4
  18b2c4:	e2841008 	add	r1, r4, #8
  18b2c8:	e3a0003f 	mov	r0, #63	; 0x3f
  18b2cc:	ebfffe0c 	bl	18ab04 <_SetPropertyCase>
  18b2d0:	ebfffcf4 	bl	18a6a8 <sub_FF99B344>
  18b2d4:	e3e01a01 	mvn	r1, #4096	; 0x1000
  18b2d8:	ebfffc58 	bl	18a440 <sub_FF829C0C>
  18b2dc:	e1a00004 	mov	r0, r4
  18b2e0:	ebfffce9 	bl	18a68c <sub_FF99A48C>
  18b2e4:	e1a00004 	mov	r0, r4
  18b2e8:	eb000099 	bl	18b554 <sub_FFAD7C94_my>
  18b2ec:	e3100001 	tst	r0, #1
  18b2f0:	0a000000 	beq	18b2f8 <loc_FF99AB34>

0018b2f4 <loc_FF99AB30>:
  18b2f4:	e5865000 	str	r5, [r6]

0018b2f8 <loc_FF99AB34>:
  18b2f8:	e8bd80f8 	pop	{r3, r4, r5, r6, r7, pc}

0018b2fc <loc_FF99AB38>:
  18b2fc:	ebfffc7b 	bl	18a4f0 <sub_FF88A928>
  18b300:	ebfffc94 	bl	18a558 <sub_FF892150>
  18b304:	e8bd80f8 	pop	{r3, r4, r5, r6, r7, pc}

0018b308 <sub_FF99A7E8_my>:
  18b308:	e92d41fc 	push	{r2, r3, r4, r5, r6, r7, r8, lr}
  18b30c:	e59f74c8 	ldr	r7, [pc, #1224]	; 18b7dc <loc_FFAD7F14+0x8>
  18b310:	e1a05000 	mov	r5, r0
  18b314:	e5970028 	ldr	r0, [r7, #40]	; 0x28
  18b318:	e3a04000 	mov	r4, #0
  18b31c:	e3500000 	cmp	r0, #0
  18b320:	0a00000b 	beq	18b354 <loc_FF99A834>
  18b324:	e59f04c8 	ldr	r0, [pc, #1224]	; 18b7f4 <loc_FFAD7F14+0x20>
  18b328:	e1a02005 	mov	r2, r5
  18b32c:	e5900000 	ldr	r0, [r0]
  18b330:	e3a01002 	mov	r1, #2
  18b334:	e3500000 	cmp	r0, #0
  18b338:	13a0401d 	movne	r4, #29
  18b33c:	e1a00004 	mov	r0, r4
  18b340:	ebfffc6b 	bl	18a4f4 <sub_FF88AB48>
  18b344:	e1a01004 	mov	r1, r4
  18b348:	e1a00005 	mov	r0, r5
  18b34c:	ebfffcd8 	bl	18a6b4 <sub_FF99B8E0>
  18b350:	eafffcd1 	b	18a69c <sub_FF99AA50>

0018b354 <loc_FF99A834>:
  18b354:	ebfffc75 	bl	18a530 <sub_FF88E388>
  18b358:	e1a01005 	mov	r1, r5
  18b35c:	ebfffc74 	bl	18a534 <sub_FF88E3E4>
  18b360:	e59f0494 	ldr	r0, [pc, #1172]	; 18b7fc <loc_FFAD7F14+0x28>
  18b364:	e3a02004 	mov	r2, #4
  18b368:	e2851030 	add	r1, r5, #48	; 0x30
  18b36c:	ebfffde4 	bl	18ab04 <_SetPropertyCase>
  18b370:	e3a02004 	mov	r2, #4
  18b374:	e2851034 	add	r1, r5, #52	; 0x34
  18b378:	e3a0002c 	mov	r0, #44	; 0x2c
  18b37c:	ebfffde0 	bl	18ab04 <_SetPropertyCase>
  18b380:	e5970104 	ldr	r0, [r7, #260]	; 0x104
  18b384:	e59f6460 	ldr	r6, [pc, #1120]	; 18b7ec <loc_FFAD7F14+0x18>
  18b388:	e3500000 	cmp	r0, #0
  18b38c:	1a000005 	bne	18b3a8 <loc_FF99A888>
  18b390:	e1d609ba 	ldrh	r0, [r6, #154]	; 0x9a
  18b394:	e3500003 	cmp	r0, #3
  18b398:	15950008 	ldrne	r0, [r5, #8]
  18b39c:	13500001 	cmpne	r0, #1
  18b3a0:	8a00000c 	bhi	18b3d8 <loc_FF99A8B8>
  18b3a4:	ea000002 	b	18b3b4 <loc_FF99A894>

0018b3a8 <loc_FF99A888>:
  18b3a8:	e595000c 	ldr	r0, [r5, #12]
  18b3ac:	e3500001 	cmp	r0, #1
  18b3b0:	1a000008 	bne	18b3d8 <loc_FF99A8B8>

0018b3b4 <loc_FF99A894>:
  18b3b4:	e3a0000c 	mov	r0, #12
  18b3b8:	ebfffc64 	bl	18a550 <sub_FF892098>
  18b3bc:	e3100001 	tst	r0, #1
  18b3c0:	1a000002 	bne	18b3d0 <loc_FF99A8B0>
  18b3c4:	ebfffc62 	bl	18a554 <sub_FF8920F4>
  18b3c8:	e3100001 	tst	r0, #1
  18b3cc:	0a000001 	beq	18b3d8 <loc_FF99A8B8>

0018b3d0 <loc_FF99A8B0>:
  18b3d0:	ebfffc46 	bl	18a4f0 <sub_FF88A928>
  18b3d4:	e3a04001 	mov	r4, #1

0018b3d8 <loc_FF99A8B8>:
  18b3d8:	e3140001 	tst	r4, #1
  18b3dc:	1afffcad 	bne	18a698 <sub_FF99AA34>
  18b3e0:	e59700e4 	ldr	r0, [r7, #228]	; 0xe4
  18b3e4:	e3500000 	cmp	r0, #0
  18b3e8:	0a000009 	beq	18b414 <loc_FF99A8F4>
  18b3ec:	e1d609ba 	ldrh	r0, [r6, #154]	; 0x9a
  18b3f0:	e3500003 	cmp	r0, #3
  18b3f4:	15950008 	ldrne	r0, [r5, #8]
  18b3f8:	13500001 	cmpne	r0, #1
  18b3fc:	8a00001a 	bhi	18b46c <loc_FF99A94C>
  18b400:	e5970104 	ldr	r0, [r7, #260]	; 0x104
  18b404:	e3500000 	cmp	r0, #0
  18b408:	1595000c 	ldrne	r0, [r5, #12]
  18b40c:	13500001 	cmpne	r0, #1
  18b410:	8a000015 	bhi	18b46c <loc_FF99A94C>

0018b414 <loc_FF99A8F4>:
  18b414:	e59f03e4 	ldr	r0, [pc, #996]	; 18b800 <loc_FFAD7F14+0x2c>
  18b418:	e3a02002 	mov	r2, #2
  18b41c:	e28d1004 	add	r1, sp, #4
  18b420:	ebfffd91 	bl	18aa6c <_GetPropertyCase>
  18b424:	e3100001 	tst	r0, #1
  18b428:	13a020ca 	movne	r2, #202	; 0xca
  18b42c:	159f13c4 	ldrne	r1, [pc, #964]	; 18b7f8 <loc_FFAD7F14+0x24>
  18b430:	13a00000 	movne	r0, #0
  18b434:	1bfffd6d 	blne	18a9f0 <_DebugAssert>
  18b438:	e1dd00f4 	ldrsh	r0, [sp, #4]
  18b43c:	ebfffc08 	bl	18a464 <sub_FF82CB64>
  18b440:	ebfffc05 	bl	18a45c <sub_FF82C980>
  18b444:	e3500001 	cmp	r0, #1
  18b448:	9a000002 	bls	18b458 <loc_FF99A938>
  18b44c:	e3a00000 	mov	r0, #0
  18b450:	ebfffc02 	bl	18a460 <sub_FF82CAD8>
  18b454:	ea000004 	b	18b46c <loc_FF99A94C>

0018b458 <loc_FF99A938>:
  18b458:	ebfffc24 	bl	18a4f0 <sub_FF88A928>
  18b45c:	ebfffc3d 	bl	18a558 <sub_FF892150>
  18b460:	e3a04001 	mov	r4, #1
  18b464:	e3540000 	cmp	r4, #0
  18b468:	1afffc8a 	bne	18a698 <sub_FF99AA34>

0018b46c <loc_FF99A94C>:
  18b46c:	ebfffc8d 	bl	18a6a8 <sub_FF99B344>
  18b470:	e3e01a01 	mvn	r1, #4096	; 0x1000
  18b474:	ebfffbf1 	bl	18a440 <sub_FF829C0C>
  18b478:	e1a00005 	mov	r0, r5
  18b47c:	ebfffc95 	bl	18a6d8 <sub_FFAD78EC>
  18b480:	e3100001 	tst	r0, #1
  18b484:	e1a04000 	mov	r4, r0
  18b488:	1afffc82 	bne	18a698 <sub_FF99AA34>
  18b48c:	ebfffc1d 	bl	18a508 <sub_FF88D298>
  18b490:	e1a00005 	mov	r0, r5
  18b494:	ebfffc7c 	bl	18a68c <sub_FF99A48C>
  18b498:	e59700a0 	ldr	r0, [r7, #160]	; 0xa0
  18b49c:	e3500000 	cmp	r0, #0
  18b4a0:	0a000023 	beq	18b534 <loc_FF99AA14>
  18b4a4:	e1d609ba 	ldrh	r0, [r6, #154]	; 0x9a
  18b4a8:	e3500003 	cmp	r0, #3
  18b4ac:	15950008 	ldrne	r0, [r5, #8]
  18b4b0:	13500001 	cmpne	r0, #1
  18b4b4:	9a000006 	bls	18b4d4 <loc_FF99A9B4>
  18b4b8:	ebfffc7a 	bl	18a6a8 <sub_FF99B344>
  18b4bc:	e59f3340 	ldr	r3, [pc, #832]	; 18b804 <loc_FFAD7F14+0x30>
  18b4c0:	e59f2340 	ldr	r2, [pc, #832]	; 18b808 <loc_FFAD7F14+0x34>
  18b4c4:	e58d3000 	str	r3, [sp]
  18b4c8:	e59f3328 	ldr	r3, [pc, #808]	; 18b7f8 <loc_FFAD7F14+0x24>
  18b4cc:	e3a01a01 	mov	r1, #4096	; 0x1000
  18b4d0:	ebfffc21 	bl	18a55c <sub_FF89237C>

0018b4d4 <loc_FF99A9B4>:
  18b4d4:	e3a02004 	mov	r2, #4
  18b4d8:	e28d1004 	add	r1, sp, #4
  18b4dc:	e3a00d06 	mov	r0, #384	; 0x180
  18b4e0:	ebfffd61 	bl	18aa6c <_GetPropertyCase>
  18b4e4:	e3100001 	tst	r0, #1
  18b4e8:	159f231c 	ldrne	r2, [pc, #796]	; 18b80c <loc_FFAD7F14+0x38>
  18b4ec:	159f1304 	ldrne	r1, [pc, #772]	; 18b7f8 <loc_FFAD7F14+0x24>
  18b4f0:	13a00000 	movne	r0, #0
  18b4f4:	1bfffd3d 	blne	18a9f0 <_DebugAssert>
  18b4f8:	e59d0004 	ldr	r0, [sp, #4]
  18b4fc:	e3500000 	cmp	r0, #0
  18b500:	1a000003 	bne	18b514 <loc_FF99A9F4>
  18b504:	ebfffc67 	bl	18a6a8 <sub_FF99B344>
  18b508:	e3a01a01 	mov	r1, #4096	; 0x1000
  18b50c:	ebfffbca 	bl	18a43c <sub_FF829BC4>
  18b510:	ea000007 	b	18b534 <loc_FF99AA14>

0018b514 <loc_FF99A9F4>:
  18b514:	ebfffc63 	bl	18a6a8 <sub_FF99B344>
  18b518:	e3a01a01 	mov	r1, #4096	; 0x1000
  18b51c:	ebfffbc7 	bl	18a440 <sub_FF829C0C>
  18b520:	e59f22e8 	ldr	r2, [pc, #744]	; 18b810 <loc_FFAD7F14+0x3c>
  18b524:	e59d0004 	ldr	r0, [sp, #4]
  18b528:	e3a03a01 	mov	r3, #4096	; 0x1000
  18b52c:	e1a01002 	mov	r1, r2
  18b530:	ebfffbbb 	bl	18a424 <sub_FF826A9C>

0018b534 <loc_FF99AA14>:
  18b534:	e59700ac 	ldr	r0, [r7, #172]	; 0xac
  18b538:	e3500000 	cmp	r0, #0
  18b53c:	e1a00005 	mov	r0, r5
  18b540:	0a000001 	beq	18b54c <loc_FF99AA2C>
  18b544:	ebfffc65 	bl	18a6e0 <sub_FFAD80B0>
  18b548:	eafffc53 	b	18a69c <sub_FF99AA50>

0018b54c <loc_FF99AA2C>:
  18b54c:	eb000000 	bl	18b554 <sub_FFAD7C94_my>
  18b550:	e59ff2bc 	ldr	pc, [pc, #700]	; 18b814 <loc_FFAD7F14+0x40>

0018b554 <sub_FFAD7C94_my>:
  18b554:	e92d47fc 	push	{r2, r3, r4, r5, r6, r7, r8, r9, sl, lr}
  18b558:	e1a04000 	mov	r4, r0
  18b55c:	ebfffc49 	bl	18a688 <sub_FF99A3F4>
  18b560:	ebfffc4f 	bl	18a6a4 <sub_FF99B1A0>
  18b564:	e59f7270 	ldr	r7, [pc, #624]	; 18b7dc <loc_FFAD7F14+0x8>
  18b568:	e5970190 	ldr	r0, [r7, #400]	; 0x190
  18b56c:	e3500002 	cmp	r0, #2
  18b570:	1a000006 	bne	18b590 <loc_FFAD7CD0>
  18b574:	e2870c01 	add	r0, r7, #256	; 0x100
  18b578:	e1d009ba 	ldrh	r0, [r0, #154]	; 0x9a
  18b57c:	e3500003 	cmp	r0, #3
  18b580:	15940008 	ldrne	r0, [r4, #8]
  18b584:	13500001 	cmpne	r0, #1
  18b588:	93a00004 	movls	r0, #4
  18b58c:	9bfffc23 	blls	18a620 <sub_FF90CF8C>

0018b590 <loc_FFAD7CD0>:
  18b590:	e59f0280 	ldr	r0, [pc, #640]	; 18b818 <loc_FFAD7F14+0x44>
  18b594:	e3a02004 	mov	r2, #4
  18b598:	e28d1004 	add	r1, sp, #4
  18b59c:	ebfffd32 	bl	18aa6c <_GetPropertyCase>
  18b5a0:	e3100001 	tst	r0, #1
  18b5a4:	159f2270 	ldrne	r2, [pc, #624]	; 18b81c <loc_FFAD7F14+0x48>
  18b5a8:	159f1270 	ldrne	r1, [pc, #624]	; 18b820 <loc_FFAD7F14+0x4c>
  18b5ac:	13a00000 	movne	r0, #0
  18b5b0:	1bfffd0e 	blne	18a9f0 <_DebugAssert>
  18b5b4:	e59d0004 	ldr	r0, [sp, #4]
  18b5b8:	e2000cff 	and	r0, r0, #65280	; 0xff00
  18b5bc:	e3500c06 	cmp	r0, #1536	; 0x600
  18b5c0:	159f025c 	ldrne	r0, [pc, #604]	; 18b824 <loc_FFAD7F14+0x50>
  18b5c4:	059f025c 	ldreq	r0, [pc, #604]	; 18b828 <loc_FFAD7F14+0x54>
  18b5c8:	11a01004 	movne	r1, r4
  18b5cc:	03a01000 	moveq	r1, #0
  18b5d0:	ebfffbee 	bl	18a590 <sub_FF8CC134>
  18b5d4:	e5970184 	ldr	r0, [r7, #388]	; 0x184
  18b5d8:	e3500000 	cmp	r0, #0
  18b5dc:	1bfffc27 	blne	18a680 <sub_FF99A2E0>
  18b5e0:	e3a00000 	mov	r0, #0
  18b5e4:	e1a00004 	mov	r0, r4
  18b5e8:	eb000095 	bl	18b844 <sub_FF99A51C_my>
  18b5ec:	e59f1238 	ldr	r1, [pc, #568]	; 18b82c <loc_FFAD7F14+0x58>
  18b5f0:	e3a02004 	mov	r2, #4
  18b5f4:	e3a0008a 	mov	r0, #138	; 0x8a
  18b5f8:	ebfffd1b 	bl	18aa6c <_GetPropertyCase>
  18b5fc:	e3100001 	tst	r0, #1
  18b600:	159f2228 	ldrne	r2, [pc, #552]	; 18b830 <loc_FFAD7F14+0x5c>
  18b604:	159f1214 	ldrne	r1, [pc, #532]	; 18b820 <loc_FFAD7F14+0x4c>
  18b608:	13a00000 	movne	r0, #0
  18b60c:	1bfffcf7 	blne	18a9f0 <_DebugAssert>
  18b610:	ebfffbc8 	bl	18a538 <sub_FF88F818>
  18b614:	ebfffbaf 	bl	18a4d8 <sub_FF87F79C>
  18b618:	e3a01000 	mov	r1, #0
  18b61c:	e1a00004 	mov	r0, r4
  18b620:	ebfffc2d 	bl	18a6dc <sub_FFAD7C14>
  18b624:	e1a06000 	mov	r6, r0
  18b628:	e59d0004 	ldr	r0, [sp, #4]
  18b62c:	e59f81f8 	ldr	r8, [pc, #504]	; 18b82c <loc_FFAD7F14+0x58>
  18b630:	e2000cff 	and	r0, r0, #65280	; 0xff00
  18b634:	e3500c06 	cmp	r0, #1536	; 0x600
  18b638:	e1d401b8 	ldrh	r0, [r4, #24]
  18b63c:	159f21f0 	ldrne	r2, [pc, #496]	; 18b834 <loc_FFAD7F14+0x60>
  18b640:	059f21f0 	ldreq	r2, [pc, #496]	; 18b838 <loc_FFAD7F14+0x64>
  18b644:	e3500000 	cmp	r0, #0
  18b648:	0a000003 	beq	18b65c <loc_FFAD7DA0>
  18b64c:	e3500001 	cmp	r0, #1
  18b650:	0a00000a 	beq	18b680 <loc_FFAD7DC4>
  18b654:	e3500004 	cmp	r0, #4
  18b658:	1a000025 	bne	18b6f4 <loc_FFAD7E38>

0018b65c <loc_FFAD7DA0>:
  18b65c:	e58d6000 	str	r6, [sp]
  18b660:	e1a03002 	mov	r3, r2
  18b664:	e5941034 	ldr	r1, [r4, #52]	; 0x34
  18b668:	e5982000 	ldr	r2, [r8]
  18b66c:	e1a00004 	mov	r0, r4
  18b670:	ebfffbff 	bl	18a674 <sub_FF999E38>
  18b674:	e1a05000 	mov	r5, r0
  18b678:	ebfffbc3 	bl	18a58c <sub_FF8C8A5C>
  18b67c:	ea000021 	b	18b708 <loc_FFAD7E4C>

0018b680 <loc_FFAD7DC4>:
  18b680:	e58d6000 	str	r6, [sp]
  18b684:	e1a03002 	mov	r3, r2
  18b688:	e5941034 	ldr	r1, [r4, #52]	; 0x34
  18b68c:	e5982000 	ldr	r2, [r8]
  18b690:	e1a00004 	mov	r0, r4
  18b694:	ebfffbf7 	bl	18a678 <sub_FF999EC4>
  18b698:	e1a05000 	mov	r5, r0
  18b69c:	e3a01000 	mov	r1, #0
  18b6a0:	e3a00045 	mov	r0, #69	; 0x45
  18b6a4:	ebfffb7e 	bl	18a4a4 <sub_FF833F7C>
  18b6a8:	e3150001 	tst	r5, #1
  18b6ac:	1a000015 	bne	18b708 <loc_FFAD7E4C>
  18b6b0:	e59f0170 	ldr	r0, [pc, #368]	; 18b828 <loc_FFAD7F14+0x54>
  18b6b4:	e3a01000 	mov	r1, #0
  18b6b8:	ebfffbb4 	bl	18a590 <sub_FF8CC134>
  18b6bc:	e3a01001 	mov	r1, #1
  18b6c0:	e1a00004 	mov	r0, r4
  18b6c4:	ebfffc04 	bl	18a6dc <sub_FFAD7C14>
  18b6c8:	e1a06000 	mov	r6, r0
  18b6cc:	e5980000 	ldr	r0, [r8]
  18b6d0:	ebfffbeb 	bl	18a684 <sub_FF99A378>
  18b6d4:	e5941034 	ldr	r1, [r4, #52]	; 0x34
  18b6d8:	e5982000 	ldr	r2, [r8]
  18b6dc:	e1a03006 	mov	r3, r6
  18b6e0:	e1a00004 	mov	r0, r4
  18b6e4:	ebfffbe4 	bl	18a67c <sub_FF999F5C>
  18b6e8:	e1a05000 	mov	r5, r0
  18b6ec:	ebfffbdf 	bl	18a670 <sub_FF999DC0>
  18b6f0:	ea000004 	b	18b708 <loc_FFAD7E4C>

0018b6f4 <loc_FFAD7E38>:
  18b6f4:	e3a02f76 	mov	r2, #472	; 0x1d8
  18b6f8:	e59f1120 	ldr	r1, [pc, #288]	; 18b820 <loc_FFAD7F14+0x4c>
  18b6fc:	e3a00000 	mov	r0, #0
  18b700:	ebfffcba 	bl	18a9f0 <_DebugAssert>
  18b704:	e3a0501d 	mov	r5, #29

0018b708 <loc_FFAD7E4C>:
  18b708:	ebfffb73 	bl	18a4dc <sub_FF87F7B4>
  18b70c:	e59f8114 	ldr	r8, [pc, #276]	; 18b828 <loc_FFAD7F14+0x54>
  18b710:	e3150001 	tst	r5, #1
  18b714:	1a00001c 	bne	18b78c <loc_FFAD7ECC>
  18b718:	e5970100 	ldr	r0, [r7, #256]	; 0x100
  18b71c:	e3500000 	cmp	r0, #0
  18b720:	1a000007 	bne	18b744 <loc_FFAD7E84>
  18b724:	e1a00004 	mov	r0, r4
  18b728:	ebfffbe3 	bl	18a6bc <sub_FF99C0E4>
  18b72c:	e3100001 	tst	r0, #1
  18b730:	159f2104 	ldrne	r2, [pc, #260]	; 18b83c <loc_FFAD7F14+0x68>
  18b734:	159f10e4 	ldrne	r1, [pc, #228]	; 18b820 <loc_FFAD7F14+0x4c>
  18b738:	13a00000 	movne	r0, #0
  18b73c:	1bfffcab 	blne	18a9f0 <_DebugAssert>
  18b740:	ebfffdd1 	bl	18ae8c <capt_seq_hook_raw_here>

0018b744 <loc_FFAD7E84>:
  18b744:	e1a00004 	mov	r0, r4
  18b748:	ebfffbd1 	bl	18a694 <sub_FF99A604>
  18b74c:	e1a00004 	mov	r0, r4
  18b750:	ebfffbce 	bl	18a690 <sub_FF99A5BC>
  18b754:	e1560008 	cmp	r6, r8
  18b758:	0a00000b 	beq	18b78c <loc_FFAD7ECC>
  18b75c:	ebfffbd1 	bl	18a6a8 <sub_FF99B344>
  18b760:	e59f90d8 	ldr	r9, [pc, #216]	; 18b840 <loc_FFAD7F14+0x6c>
  18b764:	e59f209c 	ldr	r2, [pc, #156]	; 18b808 <loc_FFAD7F14+0x34>
  18b768:	e59f30b0 	ldr	r3, [pc, #176]	; 18b820 <loc_FFAD7F14+0x4c>
  18b76c:	e3a01004 	mov	r1, #4
  18b770:	e58d9000 	str	r9, [sp]
  18b774:	ebfffb78 	bl	18a55c <sub_FF89237C>
  18b778:	e3500000 	cmp	r0, #0
  18b77c:	11a02009 	movne	r2, r9
  18b780:	159f1098 	ldrne	r1, [pc, #152]	; 18b820 <loc_FFAD7F14+0x4c>
  18b784:	13a00000 	movne	r0, #0
  18b788:	1bfffc98 	blne	18a9f0 <_DebugAssert>

0018b78c <loc_FFAD7ECC>:
  18b78c:	e1a02004 	mov	r2, r4
  18b790:	e3a01002 	mov	r1, #2
  18b794:	e1a00005 	mov	r0, r5
  18b798:	ebfffb55 	bl	18a4f4 <sub_FF88AB48>
  18b79c:	e5970028 	ldr	r0, [r7, #40]	; 0x28
  18b7a0:	e3500000 	cmp	r0, #0
  18b7a4:	0a000005 	beq	18b7c0 <loc_FFAD7F00>
  18b7a8:	e0561008 	subs	r1, r6, r8
  18b7ac:	13a01001 	movne	r1, #1
  18b7b0:	e1a02005 	mov	r2, r5
  18b7b4:	e1a00004 	mov	r0, r4
  18b7b8:	ebfffbbc 	bl	18a6b0 <sub_FF99B878>
  18b7bc:	ea000004 	b	18b7d4 <loc_FFAD7F14>

0018b7c0 <loc_FFAD7F00>:
  18b7c0:	e0561008 	subs	r1, r6, r8
  18b7c4:	13a01001 	movne	r1, #1
  18b7c8:	e1a02005 	mov	r2, r5
  18b7cc:	e1a00004 	mov	r0, r4
  18b7d0:	ebfffbb5 	bl	18a6ac <sub_FF99B80C>

0018b7d4 <loc_FFAD7F14>:
  18b7d4:	e1a00005 	mov	r0, r5
  18b7d8:	e8bd87fc 	pop	{r2, r3, r4, r5, r6, r7, r8, r9, sl, pc}
  18b7dc:	0001cd88 	.word	0x0001cd88
  18b7e0:	000034f0 	.word	0x000034f0
  18b7e4:	00000443 	.word	0x00000443
  18b7e8:	ff88c3f8 	.word	0xff88c3f8
  18b7ec:	0001ce88 	.word	0x0001ce88
  18b7f0:	0000057b 	.word	0x0000057b
  18b7f4:	00007598 	.word	0x00007598
  18b7f8:	ff99ab58 	.word	0xff99ab58
  18b7fc:	0000010e 	.word	0x0000010e
  18b800:	00000109 	.word	0x00000109
  18b804:	0000011a 	.word	0x0000011a
  18b808:	00003a98 	.word	0x00003a98
  18b80c:	0000011e 	.word	0x0000011e
  18b810:	ff99a7d4 	.word	0xff99a7d4
  18b814:	ff99aa30 	.word	0xff99aa30
  18b818:	0000012f 	.word	0x0000012f
  18b81c:	00000191 	.word	0x00000191
  18b820:	ffad7f40 	.word	0xffad7f40
  18b824:	ff99a090 	.word	0xff99a090
  18b828:	ffad7c10 	.word	0xffad7c10
  18b82c:	0000ca1c 	.word	0x0000ca1c
  18b830:	000001a5 	.word	0x000001a5
  18b834:	ff99a2c8 	.word	0xff99a2c8
  18b838:	ff99a23c 	.word	0xff99a23c
  18b83c:	000001fd 	.word	0x000001fd
  18b840:	0000020a 	.word	0x0000020a

0018b844 <sub_FF99A51C_my>:
  18b844:	e92d4070 	push	{r4, r5, r6, lr}
  18b848:	e1a04000 	mov	r4, r0
  18b84c:	e59f0820 	ldr	r0, [pc, #2080]	; 18c074 <sub_FF8C3364_my+0x74>
  18b850:	e59f5820 	ldr	r5, [pc, #2080]	; 18c078 <sub_FF8C3364_my+0x78>
  18b854:	e59000f4 	ldr	r0, [r0, #244]	; 0xf4
  18b858:	e3500000 	cmp	r0, #0
  18b85c:	159f0818 	ldrne	r0, [pc, #2072]	; 18c07c <sub_FF8C3364_my+0x7c>
  18b860:	11d009ba 	ldrhne	r0, [r0, #154]	; 0x9a
  18b864:	13500003 	cmpne	r0, #3
  18b868:	15940008 	ldrne	r0, [r4, #8]
  18b86c:	13500001 	cmpne	r0, #1
  18b870:	8a000003 	bhi	18b884 <loc_FF99A55C>
  18b874:	e594101c 	ldr	r1, [r4, #28]
  18b878:	e3a00000 	mov	r0, #0
  18b87c:	ebfffb8f 	bl	18a6c0 <sub_FFA29B24>
  18b880:	e5850000 	str	r0, [r5]

0018b884 <loc_FF99A55C>:
  18b884:	ebfffd8d 	bl	18aec0 <wait_until_remote_button_is_released>
  18b888:	ebfffd9a 	bl	18aef8 <capt_seq_hook_set_nr>
  18b88c:	e5940020 	ldr	r0, [r4, #32]
  18b890:	e59ff7e8 	ldr	pc, [pc, #2024]	; 18c080 <sub_FF8C3364_my+0x80>

0018b894 <exp_drv_task>:
  18b894:	e92d43f0 	push	{r4, r5, r6, r7, r8, r9, lr}
  18b898:	e24dd02c 	sub	sp, sp, #44	; 0x2c
  18b89c:	e59f67e0 	ldr	r6, [pc, #2016]	; 18c084 <sub_FF8C3364_my+0x84>
  18b8a0:	e59f77e0 	ldr	r7, [pc, #2016]	; 18c088 <sub_FF8C3364_my+0x88>
  18b8a4:	e59f47e0 	ldr	r4, [pc, #2016]	; 18c08c <sub_FF8C3364_my+0x8c>
  18b8a8:	e3a00000 	mov	r0, #0
  18b8ac:	e28d501c 	add	r5, sp, #28
  18b8b0:	e58d000c 	str	r0, [sp, #12]

0018b8b4 <loc_FF8DB0D0>:
  18b8b4:	e5960020 	ldr	r0, [r6, #32]
  18b8b8:	e3a02000 	mov	r2, #0
  18b8bc:	e28d1028 	add	r1, sp, #40	; 0x28
  18b8c0:	ebfffadf 	bl	18a444 <sub_FF829E30>
  18b8c4:	e59d000c 	ldr	r0, [sp, #12]
  18b8c8:	e3500001 	cmp	r0, #1
  18b8cc:	1a00000c 	bne	18b904 <loc_FF8DB120>
  18b8d0:	e59d0028 	ldr	r0, [sp, #40]	; 0x28
  18b8d4:	e5900000 	ldr	r0, [r0]
  18b8d8:	e3500014 	cmp	r0, #20
  18b8dc:	13500015 	cmpne	r0, #21
  18b8e0:	13500016 	cmpne	r0, #22
  18b8e4:	13500017 	cmpne	r0, #23
  18b8e8:	13500018 	cmpne	r0, #24
  18b8ec:	0a00005d 	beq	18ba68 <loc_FF8DB284>
  18b8f0:	e350002e 	cmp	r0, #46	; 0x2e
  18b8f4:	0a00003c 	beq	18b9ec <loc_FF8DB208>
  18b8f8:	e28d100c 	add	r1, sp, #12
  18b8fc:	e3a00000 	mov	r0, #0
  18b900:	ebfffb3d 	bl	18a5fc <sub_FF8DB050>

0018b904 <loc_FF8DB120>:
  18b904:	e59d0028 	ldr	r0, [sp, #40]	; 0x28
  18b908:	e5901000 	ldr	r1, [r0]
  18b90c:	e3510034 	cmp	r1, #52	; 0x34
  18b910:	1a000006 	bne	18b930 <loc_FF8DB14C>
  18b914:	ebfffb39 	bl	18a600 <sub_FF8DC8F0>
  18b918:	e596001c 	ldr	r0, [r6, #28]
  18b91c:	e3a01001 	mov	r1, #1
  18b920:	ebfffac5 	bl	18a43c <sub_FF829BC4>
  18b924:	ebfffc38 	bl	18aa0c <_ExitTask>
  18b928:	e28dd02c 	add	sp, sp, #44	; 0x2c
  18b92c:	e8bd83f0 	pop	{r4, r5, r6, r7, r8, r9, pc}

0018b930 <loc_FF8DB14C>:
  18b930:	e3510033 	cmp	r1, #51	; 0x33
  18b934:	1a000004 	bne	18b94c <loc_FF8DB168>
  18b938:	e5b020ac 	ldr	r2, [r0, #172]!	; 0xac
  18b93c:	e5901004 	ldr	r1, [r0, #4]
  18b940:	e1a00001 	mov	r0, r1
  18b944:	e12fff32 	blx	r2
  18b948:	ea000176 	b	18bf28 <loc_FF8DB744>

0018b94c <loc_FF8DB168>:
  18b94c:	e351002c 	cmp	r1, #44	; 0x2c
  18b950:	1a000011 	bne	18b99c <loc_FF8DB1B8>
  18b954:	e596001c 	ldr	r0, [r6, #28]
  18b958:	e3a01080 	mov	r1, #128	; 0x80
  18b95c:	ebfffab7 	bl	18a440 <sub_FF829C0C>
  18b960:	e59f0728 	ldr	r0, [pc, #1832]	; 18c090 <sub_FF8C3364_my+0x90>
  18b964:	e3a01080 	mov	r1, #128	; 0x80
  18b968:	ebfffadc 	bl	18a4e0 <sub_FF887A8C>
  18b96c:	e596001c 	ldr	r0, [r6, #28]
  18b970:	e1a02007 	mov	r2, r7
  18b974:	e3a01080 	mov	r1, #128	; 0x80
  18b978:	ebfffaae 	bl	18a438 <sub_FF829AF8>
  18b97c:	e3100001 	tst	r0, #1
  18b980:	159f270c 	ldrne	r2, [pc, #1804]	; 18c094 <sub_FF8C3364_my+0x94>
  18b984:	1a000033 	bne	18ba58 <loc_FF8DB274>

0018b988 <loc_FF8DB1A4>:
  18b988:	e59d1028 	ldr	r1, [sp, #40]	; 0x28
  18b98c:	e59100b0 	ldr	r0, [r1, #176]	; 0xb0
  18b990:	e59110ac 	ldr	r1, [r1, #172]	; 0xac
  18b994:	e12fff31 	blx	r1
  18b998:	ea000162 	b	18bf28 <loc_FF8DB744>

0018b99c <loc_FF8DB1B8>:
  18b99c:	e351002d 	cmp	r1, #45	; 0x2d
  18b9a0:	1a00000f 	bne	18b9e4 <loc_FF8DB200>
  18b9a4:	e28d100c 	add	r1, sp, #12
  18b9a8:	ebfffb13 	bl	18a5fc <sub_FF8DB050>
  18b9ac:	e596001c 	ldr	r0, [r6, #28]
  18b9b0:	e3a01c01 	mov	r1, #256	; 0x100
  18b9b4:	ebfffaa1 	bl	18a440 <sub_FF829C0C>
  18b9b8:	e59f06d8 	ldr	r0, [pc, #1752]	; 18c098 <sub_FF8C3364_my+0x98>
  18b9bc:	e3a01c01 	mov	r1, #256	; 0x100
  18b9c0:	ebfffac8 	bl	18a4e8 <sub_FF887CA4>
  18b9c4:	e596001c 	ldr	r0, [r6, #28]
  18b9c8:	e1a02007 	mov	r2, r7
  18b9cc:	e3a01c01 	mov	r1, #256	; 0x100
  18b9d0:	ebfffa98 	bl	18a438 <sub_FF829AF8>
  18b9d4:	e3100001 	tst	r0, #1
  18b9d8:	0affffea 	beq	18b988 <loc_FF8DB1A4>
  18b9dc:	e59f26b8 	ldr	r2, [pc, #1720]	; 18c09c <sub_FF8C3364_my+0x9c>
  18b9e0:	ea00001c 	b	18ba58 <loc_FF8DB274>

0018b9e4 <loc_FF8DB200>:
  18b9e4:	e351002e 	cmp	r1, #46	; 0x2e
  18b9e8:	1a000003 	bne	18b9fc <loc_FF8DB218>

0018b9ec <loc_FF8DB208>:
  18b9ec:	e59d0028 	ldr	r0, [sp, #40]	; 0x28
  18b9f0:	e28d100c 	add	r1, sp, #12
  18b9f4:	ebfffb00 	bl	18a5fc <sub_FF8DB050>
  18b9f8:	eaffffe2 	b	18b988 <loc_FF8DB1A4>

0018b9fc <loc_FF8DB218>:
  18b9fc:	e3510031 	cmp	r1, #49	; 0x31
  18ba00:	1a000003 	bne	18ba14 <loc_FF8DB230>
  18ba04:	ebfffadd 	bl	18a580 <sub_FF8C3658>
  18ba08:	ebfffade 	bl	18a588 <sub_FF8C44D0>
  18ba0c:	ebfffadc 	bl	18a584 <sub_FF8C3FB0>
  18ba10:	eaffffdc 	b	18b988 <loc_FF8DB1A4>

0018ba14 <loc_FF8DB230>:
  18ba14:	e3510032 	cmp	r1, #50	; 0x32
  18ba18:	1a000012 	bne	18ba68 <loc_FF8DB284>
  18ba1c:	e596001c 	ldr	r0, [r6, #28]
  18ba20:	e3a01004 	mov	r1, #4
  18ba24:	ebfffa85 	bl	18a440 <sub_FF829C0C>
  18ba28:	e59f1670 	ldr	r1, [pc, #1648]	; 18c0a0 <sub_FF8C3364_my+0xa0>
  18ba2c:	e59f0670 	ldr	r0, [pc, #1648]	; 18c0a4 <sub_FF8C3364_my+0xa4>
  18ba30:	e3a02004 	mov	r2, #4
  18ba34:	ebfffaf2 	bl	18a604 <sub_FF8DC954>
  18ba38:	ebfffacf 	bl	18a57c <sub_FF8C32EC>
  18ba3c:	e596001c 	ldr	r0, [r6, #28]
  18ba40:	e1a02007 	mov	r2, r7
  18ba44:	e3a01004 	mov	r1, #4
  18ba48:	ebfffa79 	bl	18a434 <sub_FF829A0C>
  18ba4c:	e3100001 	tst	r0, #1
  18ba50:	0affffcc 	beq	18b988 <loc_FF8DB1A4>
  18ba54:	e59f264c 	ldr	r2, [pc, #1612]	; 18c0a8 <sub_FF8C3364_my+0xa8>

0018ba58 <loc_FF8DB274>:
  18ba58:	e59f164c 	ldr	r1, [pc, #1612]	; 18c0ac <sub_FF8C3364_my+0xac>
  18ba5c:	e3a00000 	mov	r0, #0
  18ba60:	ebfffbe2 	bl	18a9f0 <_DebugAssert>
  18ba64:	eaffffc7 	b	18b988 <loc_FF8DB1A4>

0018ba68 <loc_FF8DB284>:
  18ba68:	e59d0028 	ldr	r0, [sp, #40]	; 0x28
  18ba6c:	e3a08001 	mov	r8, #1
  18ba70:	e5901000 	ldr	r1, [r0]
  18ba74:	e3510012 	cmp	r1, #18
  18ba78:	13510013 	cmpne	r1, #19
  18ba7c:	1a000013 	bne	18bad0 <loc_FF8DB2EC>
  18ba80:	e5901094 	ldr	r1, [r0, #148]	; 0x94
  18ba84:	e0811081 	add	r1, r1, r1, lsl #1
  18ba88:	e0801101 	add	r1, r0, r1, lsl #2
  18ba8c:	e2411008 	sub	r1, r1, #8
  18ba90:	e891020c 	ldm	r1, {r2, r3, r9}
  18ba94:	e885020c 	stm	r5, {r2, r3, r9}
  18ba98:	ebfffad3 	bl	18a5ec <sub_FF8D949C>
  18ba9c:	e59d0028 	ldr	r0, [sp, #40]	; 0x28
  18baa0:	e5901094 	ldr	r1, [r0, #148]	; 0x94
  18baa4:	e59030ac 	ldr	r3, [r0, #172]	; 0xac
  18baa8:	e59020b0 	ldr	r2, [r0, #176]	; 0xb0
  18baac:	e2800004 	add	r0, r0, #4
  18bab0:	e12fff33 	blx	r3
  18bab4:	e59d0028 	ldr	r0, [sp, #40]	; 0x28
  18bab8:	ebfffad6 	bl	18a618 <sub_FF8DCC3C>
  18babc:	e59d0028 	ldr	r0, [sp, #40]	; 0x28
  18bac0:	e5901094 	ldr	r1, [r0, #148]	; 0x94
  18bac4:	e59020b8 	ldr	r2, [r0, #184]	; 0xb8
  18bac8:	e59030b4 	ldr	r3, [r0, #180]	; 0xb4
  18bacc:	ea0000c6 	b	18bdec <loc_FF8DB608>

0018bad0 <loc_FF8DB2EC>:
  18bad0:	e3510014 	cmp	r1, #20
  18bad4:	13510015 	cmpne	r1, #21
  18bad8:	13510016 	cmpne	r1, #22
  18badc:	13510017 	cmpne	r1, #23
  18bae0:	13510018 	cmpne	r1, #24
  18bae4:	1a000024 	bne	18bb7c <loc_FF8DB398>
  18bae8:	e28d300c 	add	r3, sp, #12
  18baec:	e1a0200d 	mov	r2, sp
  18baf0:	e28d101c 	add	r1, sp, #28
  18baf4:	ebfffabd 	bl	18a5f0 <sub_FF8D970C>
  18baf8:	e3500001 	cmp	r0, #1
  18bafc:	e1a09000 	mov	r9, r0
  18bb00:	13590005 	cmpne	r9, #5
  18bb04:	1a000007 	bne	18bb28 <loc_FF8DB344>
  18bb08:	e59d0028 	ldr	r0, [sp, #40]	; 0x28
  18bb0c:	e1a02009 	mov	r2, r9
  18bb10:	e5901094 	ldr	r1, [r0, #148]	; 0x94
  18bb14:	e590c0ac 	ldr	ip, [r0, #172]	; 0xac
  18bb18:	e59030b0 	ldr	r3, [r0, #176]	; 0xb0
  18bb1c:	e2800004 	add	r0, r0, #4
  18bb20:	e12fff3c 	blx	ip
  18bb24:	ea00000d 	b	18bb60 <loc_FF8DB37C>

0018bb28 <loc_FF8DB344>:
  18bb28:	e59d0028 	ldr	r0, [sp, #40]	; 0x28
  18bb2c:	e3590002 	cmp	r9, #2
  18bb30:	e5901094 	ldr	r1, [r0, #148]	; 0x94
  18bb34:	e590c0ac 	ldr	ip, [r0, #172]	; 0xac
  18bb38:	e59030b0 	ldr	r3, [r0, #176]	; 0xb0
  18bb3c:	13590006 	cmpne	r9, #6
  18bb40:	e1a02009 	mov	r2, r9
  18bb44:	e2800004 	add	r0, r0, #4
  18bb48:	1a000009 	bne	18bb74 <loc_FF8DB390>
  18bb4c:	e12fff3c 	blx	ip
  18bb50:	e59d0028 	ldr	r0, [sp, #40]	; 0x28
  18bb54:	e1a0200d 	mov	r2, sp
  18bb58:	e28d101c 	add	r1, sp, #28
  18bb5c:	ebfffaa4 	bl	18a5f4 <sub_FF8DAD5C>

0018bb60 <loc_FF8DB37C>:
  18bb60:	e59d0028 	ldr	r0, [sp, #40]	; 0x28
  18bb64:	e59d200c 	ldr	r2, [sp, #12]
  18bb68:	e1a01009 	mov	r1, r9
  18bb6c:	ebfffaa1 	bl	18a5f8 <sub_FF8DAFE0>
  18bb70:	ea00009f 	b	18bdf4 <loc_FF8DB610>

0018bb74 <loc_FF8DB390>:
  18bb74:	e12fff3c 	blx	ip
  18bb78:	ea00009d 	b	18bdf4 <loc_FF8DB610>

0018bb7c <loc_FF8DB398>:
  18bb7c:	e3510028 	cmp	r1, #40	; 0x28
  18bb80:	13510029 	cmpne	r1, #41	; 0x29
  18bb84:	1a00000f 	bne	18bbc8 <loc_FF8DB3E4>
  18bb88:	e5901094 	ldr	r1, [r0, #148]	; 0x94
  18bb8c:	e0811081 	add	r1, r1, r1, lsl #1
  18bb90:	e0801101 	add	r1, r0, r1, lsl #2
  18bb94:	e2411008 	sub	r1, r1, #8
  18bb98:	e891020c 	ldm	r1, {r2, r3, r9}
  18bb9c:	e885020c 	stm	r5, {r2, r3, r9}
  18bba0:	ebfffa8a 	bl	18a5d0 <sub_FF8D83C8>
  18bba4:	e59d0028 	ldr	r0, [sp, #40]	; 0x28
  18bba8:	e5901094 	ldr	r1, [r0, #148]	; 0x94
  18bbac:	e59030ac 	ldr	r3, [r0, #172]	; 0xac
  18bbb0:	e59020b0 	ldr	r2, [r0, #176]	; 0xb0
  18bbb4:	e2800004 	add	r0, r0, #4
  18bbb8:	e12fff33 	blx	r3
  18bbbc:	e59d0028 	ldr	r0, [sp, #40]	; 0x28
  18bbc0:	ebfffa83 	bl	18a5d4 <sub_FF8D8818>
  18bbc4:	ea00008a 	b	18bdf4 <loc_FF8DB610>

0018bbc8 <loc_FF8DB3E4>:
  18bbc8:	e2801004 	add	r1, r0, #4
  18bbcc:	e891020c 	ldm	r1, {r2, r3, r9}
  18bbd0:	e885020c 	stm	r5, {r2, r3, r9}
  18bbd4:	e5901000 	ldr	r1, [r0]
  18bbd8:	e351002c 	cmp	r1, #44	; 0x2c
  18bbdc:	308ff101 	addcc	pc, pc, r1, lsl #2
  18bbe0:	ea00007d 	b	18bddc <loc_FF8DB5F8>
  18bbe4:	ea00002a 	b	18bc94 <loc_FF8DB4B0>
  18bbe8:	ea000029 	b	18bc94 <loc_FF8DB4B0>
  18bbec:	ea00002a 	b	18bc9c <loc_FF8DB4B8>
  18bbf0:	ea00002b 	b	18bca4 <loc_FF8DB4C0>
  18bbf4:	ea00002a 	b	18bca4 <loc_FF8DB4C0>
  18bbf8:	ea000029 	b	18bca4 <loc_FF8DB4C0>
  18bbfc:	ea000024 	b	18bc94 <loc_FF8DB4B0>
  18bc00:	ea000025 	b	18bc9c <loc_FF8DB4B8>
  18bc04:	ea000026 	b	18bca4 <loc_FF8DB4C0>
  18bc08:	ea000025 	b	18bca4 <loc_FF8DB4C0>
  18bc0c:	ea00002a 	b	18bcbc <loc_FF8DB4D8>
  18bc10:	ea000029 	b	18bcbc <loc_FF8DB4D8>
  18bc14:	ea00006b 	b	18bdc8 <loc_FF8DB5E4>
  18bc18:	ea00006c 	b	18bdd0 <loc_FF8DB5EC>
  18bc1c:	ea00006b 	b	18bdd0 <loc_FF8DB5EC>
  18bc20:	ea00006a 	b	18bdd0 <loc_FF8DB5EC>
  18bc24:	ea000069 	b	18bdd0 <loc_FF8DB5EC>
  18bc28:	ea00006a 	b	18bdd8 <loc_FF8DB5F4>
  18bc2c:	ea00006a 	b	18bddc <loc_FF8DB5F8>
  18bc30:	ea000069 	b	18bddc <loc_FF8DB5F8>
  18bc34:	ea000068 	b	18bddc <loc_FF8DB5F8>
  18bc38:	ea000067 	b	18bddc <loc_FF8DB5F8>
  18bc3c:	ea000066 	b	18bddc <loc_FF8DB5F8>
  18bc40:	ea000065 	b	18bddc <loc_FF8DB5F8>
  18bc44:	ea000064 	b	18bddc <loc_FF8DB5F8>
  18bc48:	ea000017 	b	18bcac <loc_FF8DB4C8>
  18bc4c:	ea000018 	b	18bcb4 <loc_FF8DB4D0>
  18bc50:	ea000017 	b	18bcb4 <loc_FF8DB4D0>
  18bc54:	ea000016 	b	18bcb4 <loc_FF8DB4D0>
  18bc58:	ea00001a 	b	18bcc8 <loc_FF8DB4E4>
  18bc5c:	ea000019 	b	18bcc8 <loc_FF8DB4E4>
  18bc60:	ea000018 	b	18bcc8 <loc_FF8DB4E4>
  18bc64:	ea000019 	b	18bcd0 <loc_FF8DB4EC>
  18bc68:	ea000026 	b	18bd08 <loc_FF8DB524>
  18bc6c:	ea00005a 	b	18bddc <loc_FF8DB5F8>
  18bc70:	ea000059 	b	18bddc <loc_FF8DB5F8>
  18bc74:	ea000031 	b	18bd40 <loc_FF8DB55C>
  18bc78:	ea00003e 	b	18bd78 <loc_FF8DB594>
  18bc7c:	ea00004b 	b	18bdb0 <loc_FF8DB5CC>
  18bc80:	ea00004a 	b	18bdb0 <loc_FF8DB5CC>
  18bc84:	ea000054 	b	18bddc <loc_FF8DB5F8>
  18bc88:	ea000053 	b	18bddc <loc_FF8DB5F8>
  18bc8c:	ea000049 	b	18bdb8 <loc_FF8DB5D4>
  18bc90:	ea00004a 	b	18bdc0 <loc_FF8DB5DC>

0018bc94 <loc_FF8DB4B0>:
  18bc94:	ebfffa45 	bl	18a5b0 <sub_FF8D6AA0>
  18bc98:	ea00004f 	b	18bddc <loc_FF8DB5F8>

0018bc9c <loc_FF8DB4B8>:
  18bc9c:	ebfffa44 	bl	18a5b4 <sub_FF8D6D6C>
  18bca0:	ea00004d 	b	18bddc <loc_FF8DB5F8>

0018bca4 <loc_FF8DB4C0>:
  18bca4:	ebfffa43 	bl	18a5b8 <sub_FF8D6FAC>
  18bca8:	ea00004b 	b	18bddc <loc_FF8DB5F8>

0018bcac <loc_FF8DB4C8>:
  18bcac:	ebfffa42 	bl	18a5bc <sub_FF8D72F4>
  18bcb0:	ea000049 	b	18bddc <loc_FF8DB5F8>

0018bcb4 <loc_FF8DB4D0>:
  18bcb4:	ebfffa41 	bl	18a5c0 <sub_FF8D7524>
  18bcb8:	ea000047 	b	18bddc <loc_FF8DB5F8>

0018bcbc <loc_FF8DB4D8>:
  18bcbc:	eb00009c 	bl	18bf34 <sub_FF8D7914_my>
  18bcc0:	e3a08000 	mov	r8, #0
  18bcc4:	ea000044 	b	18bddc <loc_FF8DB5F8>

0018bcc8 <loc_FF8DB4E4>:
  18bcc8:	ebfffa3d 	bl	18a5c4 <sub_FF8D7AE8>
  18bccc:	ea000042 	b	18bddc <loc_FF8DB5F8>

0018bcd0 <loc_FF8DB4EC>:
  18bcd0:	e1d010b4 	ldrh	r1, [r0, #4]
  18bcd4:	e1cd11bc 	strh	r1, [sp, #28]
  18bcd8:	e1d410b2 	ldrh	r1, [r4, #2]
  18bcdc:	e1cd11be 	strh	r1, [sp, #30]
  18bce0:	e1d410b4 	ldrh	r1, [r4, #4]
  18bce4:	e1cd12b0 	strh	r1, [sp, #32]
  18bce8:	e1d410b6 	ldrh	r1, [r4, #6]
  18bcec:	e1cd12b2 	strh	r1, [sp, #34]	; 0x22
  18bcf0:	e1d010bc 	ldrh	r1, [r0, #12]
  18bcf4:	e1cd12b4 	strh	r1, [sp, #36]	; 0x24
  18bcf8:	e1d410ba 	ldrh	r1, [r4, #10]
  18bcfc:	e1cd12b6 	strh	r1, [sp, #38]	; 0x26
  18bd00:	ebfffa30 	bl	18a5c8 <sub_FF8D8050>
  18bd04:	ea000034 	b	18bddc <loc_FF8DB5F8>

0018bd08 <loc_FF8DB524>:
  18bd08:	e1d010b4 	ldrh	r1, [r0, #4]
  18bd0c:	e1cd11bc 	strh	r1, [sp, #28]
  18bd10:	e1d410b2 	ldrh	r1, [r4, #2]
  18bd14:	e1cd11be 	strh	r1, [sp, #30]
  18bd18:	e1d410b4 	ldrh	r1, [r4, #4]
  18bd1c:	e1cd12b0 	strh	r1, [sp, #32]
  18bd20:	e1d410b6 	ldrh	r1, [r4, #6]
  18bd24:	e1cd12b2 	strh	r1, [sp, #34]	; 0x22
  18bd28:	e1d410b8 	ldrh	r1, [r4, #8]
  18bd2c:	e1cd12b4 	strh	r1, [sp, #36]	; 0x24
  18bd30:	e1d410ba 	ldrh	r1, [r4, #10]
  18bd34:	e1cd12b6 	strh	r1, [sp, #38]	; 0x26
  18bd38:	ebfffa33 	bl	18a60c <sub_FF8DC9B4>
  18bd3c:	ea000026 	b	18bddc <loc_FF8DB5F8>

0018bd40 <loc_FF8DB55C>:
  18bd40:	e1d410b0 	ldrh	r1, [r4]
  18bd44:	e1cd11bc 	strh	r1, [sp, #28]
  18bd48:	e1d010b6 	ldrh	r1, [r0, #6]
  18bd4c:	e1cd11be 	strh	r1, [sp, #30]
  18bd50:	e1d410b4 	ldrh	r1, [r4, #4]
  18bd54:	e1cd12b0 	strh	r1, [sp, #32]
  18bd58:	e1d410b6 	ldrh	r1, [r4, #6]
  18bd5c:	e1cd12b2 	strh	r1, [sp, #34]	; 0x22
  18bd60:	e1d410b8 	ldrh	r1, [r4, #8]
  18bd64:	e1cd12b4 	strh	r1, [sp, #36]	; 0x24
  18bd68:	e1d410ba 	ldrh	r1, [r4, #10]
  18bd6c:	e1cd12b6 	strh	r1, [sp, #38]	; 0x26
  18bd70:	ebfffa26 	bl	18a610 <sub_FF8DCAE8>
  18bd74:	ea000018 	b	18bddc <loc_FF8DB5F8>

0018bd78 <loc_FF8DB594>:
  18bd78:	e1d410b0 	ldrh	r1, [r4]
  18bd7c:	e1cd11bc 	strh	r1, [sp, #28]
  18bd80:	e1d410b2 	ldrh	r1, [r4, #2]
  18bd84:	e1cd11be 	strh	r1, [sp, #30]
  18bd88:	e1d410b4 	ldrh	r1, [r4, #4]
  18bd8c:	e1cd12b0 	strh	r1, [sp, #32]
  18bd90:	e1d410b6 	ldrh	r1, [r4, #6]
  18bd94:	e1cd12b2 	strh	r1, [sp, #34]	; 0x22
  18bd98:	e1d010bc 	ldrh	r1, [r0, #12]
  18bd9c:	e1cd12b4 	strh	r1, [sp, #36]	; 0x24
  18bda0:	e1d410ba 	ldrh	r1, [r4, #10]
  18bda4:	e1cd12b6 	strh	r1, [sp, #38]	; 0x26
  18bda8:	ebfffa19 	bl	18a614 <sub_FF8DCB94>
  18bdac:	ea00000a 	b	18bddc <loc_FF8DB5F8>

0018bdb0 <loc_FF8DB5CC>:
  18bdb0:	ebfffa05 	bl	18a5cc <sub_FF8D8164>
  18bdb4:	ea000008 	b	18bddc <loc_FF8DB5F8>

0018bdb8 <loc_FF8DB5D4>:
  18bdb8:	ebfffa06 	bl	18a5d8 <sub_FF8D8930>
  18bdbc:	ea000006 	b	18bddc <loc_FF8DB5F8>

0018bdc0 <loc_FF8DB5DC>:
  18bdc0:	ebfffa05 	bl	18a5dc <sub_FF8D8CC8>
  18bdc4:	ea000004 	b	18bddc <loc_FF8DB5F8>

0018bdc8 <loc_FF8DB5E4>:
  18bdc8:	ebfffa04 	bl	18a5e0 <sub_FF8D8F38>
  18bdcc:	ea000002 	b	18bddc <loc_FF8DB5F8>

0018bdd0 <loc_FF8DB5EC>:
  18bdd0:	ebfffa03 	bl	18a5e4 <sub_FF8D9104>
  18bdd4:	ea000000 	b	18bddc <loc_FF8DB5F8>

0018bdd8 <loc_FF8DB5F4>:
  18bdd8:	ebfffa02 	bl	18a5e8 <sub_FF8D927C>

0018bddc <loc_FF8DB5F8>:
  18bddc:	e59d0028 	ldr	r0, [sp, #40]	; 0x28
  18bde0:	e5901094 	ldr	r1, [r0, #148]	; 0x94
  18bde4:	e59020b0 	ldr	r2, [r0, #176]	; 0xb0
  18bde8:	e59030ac 	ldr	r3, [r0, #172]	; 0xac

0018bdec <loc_FF8DB608>:
  18bdec:	e2800004 	add	r0, r0, #4
  18bdf0:	e12fff33 	blx	r3

0018bdf4 <loc_FF8DB610>:
  18bdf4:	e59d0028 	ldr	r0, [sp, #40]	; 0x28
  18bdf8:	e5900000 	ldr	r0, [r0]
  18bdfc:	e3500010 	cmp	r0, #16
  18be00:	0a000009 	beq	18be2c <loc_FF8DB648>
  18be04:	ca000004 	bgt	18be1c <loc_FF8DB638>
  18be08:	e3500001 	cmp	r0, #1
  18be0c:	13500004 	cmpne	r0, #4
  18be10:	1350000e 	cmpne	r0, #14
  18be14:	1a000011 	bne	18be60 <loc_FF8DB67C>
  18be18:	ea000003 	b	18be2c <loc_FF8DB648>

0018be1c <loc_FF8DB638>:
  18be1c:	e3500013 	cmp	r0, #19
  18be20:	13500018 	cmpne	r0, #24
  18be24:	1350001b 	cmpne	r0, #27
  18be28:	1a00000c 	bne	18be60 <loc_FF8DB67C>

0018be2c <loc_FF8DB648>:
  18be2c:	e1d400f0 	ldrsh	r0, [r4]
  18be30:	e3700b03 	cmn	r0, #3072	; 0xc00
  18be34:	11d410f8 	ldrshne	r1, [r4, #8]
  18be38:	13710b03 	cmnne	r1, #3072	; 0xc00
  18be3c:	11cd01bc 	strhne	r0, [sp, #28]
  18be40:	11cd12b4 	strhne	r1, [sp, #36]	; 0x24
  18be44:	1a000005 	bne	18be60 <loc_FF8DB67C>
  18be48:	e28d0010 	add	r0, sp, #16
  18be4c:	ebfff9f2 	bl	18a61c <sub_FF8DCE6C>
  18be50:	e1dd01b0 	ldrh	r0, [sp, #16]
  18be54:	e1cd01bc 	strh	r0, [sp, #28]
  18be58:	e1dd01b8 	ldrh	r0, [sp, #24]
  18be5c:	e1cd02b4 	strh	r0, [sp, #36]	; 0x24

0018be60 <loc_FF8DB67C>:
  18be60:	e59d0028 	ldr	r0, [sp, #40]	; 0x28
  18be64:	e3580001 	cmp	r8, #1
  18be68:	1a000010 	bne	18beb0 <loc_FF8DB6CC>
  18be6c:	e5901094 	ldr	r1, [r0, #148]	; 0x94
  18be70:	e3a0200c 	mov	r2, #12
  18be74:	e0811081 	add	r1, r1, r1, lsl #1
  18be78:	e0800101 	add	r0, r0, r1, lsl #2
  18be7c:	e2408008 	sub	r8, r0, #8
  18be80:	e59f0204 	ldr	r0, [pc, #516]	; 18c08c <sub_FF8C3364_my+0x8c>
  18be84:	e28d101c 	add	r1, sp, #28
  18be88:	ebfff957 	bl	18a3ec <sub_006BA828>
  18be8c:	e59f021c 	ldr	r0, [pc, #540]	; 18c0b0 <sub_FF8C3364_my+0xb0>
  18be90:	e3a0200c 	mov	r2, #12
  18be94:	e28d101c 	add	r1, sp, #28
  18be98:	ebfff953 	bl	18a3ec <sub_006BA828>
  18be9c:	e59f0210 	ldr	r0, [pc, #528]	; 18c0b4 <sub_FF8C3364_my+0xb4>
  18bea0:	e3a0200c 	mov	r2, #12
  18bea4:	e1a01008 	mov	r1, r8
  18bea8:	ebfff94f 	bl	18a3ec <sub_006BA828>
  18beac:	ea00001d 	b	18bf28 <loc_FF8DB744>

0018beb0 <loc_FF8DB6CC>:
  18beb0:	e5900000 	ldr	r0, [r0]
  18beb4:	e3a03001 	mov	r3, #1
  18beb8:	e350000b 	cmp	r0, #11
  18bebc:	1a00000c 	bne	18bef4 <loc_FF8DB710>
  18bec0:	e3a02000 	mov	r2, #0
  18bec4:	e1cd20f0 	strd	r2, [sp]
  18bec8:	e1a02003 	mov	r2, r3
  18becc:	e1a01003 	mov	r1, r3
  18bed0:	e3a00000 	mov	r0, #0
  18bed4:	ebfff9b3 	bl	18a5a8 <sub_FF8D686C>
  18bed8:	e3a03001 	mov	r3, #1
  18bedc:	e3a02000 	mov	r2, #0
  18bee0:	e1cd20f0 	strd	r2, [sp]
  18bee4:	e1a02003 	mov	r2, r3
  18bee8:	e1a01003 	mov	r1, r3
  18beec:	e3a00000 	mov	r0, #0
  18bef0:	ea00000b 	b	18bf24 <loc_FF8DB740>

0018bef4 <loc_FF8DB710>:
  18bef4:	e3a02001 	mov	r2, #1
  18bef8:	e1cd20f0 	strd	r2, [sp]
  18befc:	e1a03002 	mov	r3, r2
  18bf00:	e1a01002 	mov	r1, r2
  18bf04:	e1a00002 	mov	r0, r2
  18bf08:	ebfff9a6 	bl	18a5a8 <sub_FF8D686C>
  18bf0c:	e3a03001 	mov	r3, #1
  18bf10:	e1a02003 	mov	r2, r3
  18bf14:	e1a01003 	mov	r1, r3
  18bf18:	e1a00003 	mov	r0, r3
  18bf1c:	e58d3000 	str	r3, [sp]
  18bf20:	e58d3004 	str	r3, [sp, #4]

0018bf24 <loc_FF8DB740>:
  18bf24:	ebfff9a0 	bl	18a5ac <sub_FF8D69E8>

0018bf28 <loc_FF8DB744>:
  18bf28:	e59d0028 	ldr	r0, [sp, #40]	; 0x28
  18bf2c:	ebfff9b3 	bl	18a600 <sub_FF8DC8F0>
  18bf30:	eafffe5f 	b	18b8b4 <loc_FF8DB0D0>

0018bf34 <sub_FF8D7914_my>:
  18bf34:	e92d41f0 	push	{r4, r5, r6, r7, r8, lr}
  18bf38:	e59f7144 	ldr	r7, [pc, #324]	; 18c084 <sub_FF8C3364_my+0x84>
  18bf3c:	e1a04000 	mov	r4, r0
  18bf40:	e597001c 	ldr	r0, [r7, #28]
  18bf44:	e3a0103e 	mov	r1, #62	; 0x3e
  18bf48:	ebfff93c 	bl	18a440 <sub_FF829C0C>
  18bf4c:	e3a02000 	mov	r2, #0
  18bf50:	e1d400f4 	ldrsh	r0, [r4, #4]
  18bf54:	e3a03001 	mov	r3, #1
  18bf58:	e1a01002 	mov	r1, r2
  18bf5c:	ebfff98c 	bl	18a594 <sub_FF8D64EC>
  18bf60:	e1a06000 	mov	r6, r0
  18bf64:	e1d400f6 	ldrsh	r0, [r4, #6]
  18bf68:	ebfff98a 	bl	18a598 <sub_FF8D66CC>
  18bf6c:	e1d400f8 	ldrsh	r0, [r4, #8]
  18bf70:	ebfff989 	bl	18a59c <sub_FF8D6724>
  18bf74:	e1d400fa 	ldrsh	r0, [r4, #10]
  18bf78:	ebfff988 	bl	18a5a0 <sub_FF8D677C>
  18bf7c:	e1d400fc 	ldrsh	r0, [r4, #12]
  18bf80:	e3a01000 	mov	r1, #0
  18bf84:	ebfff986 	bl	18a5a4 <sub_FF8D67D4>
  18bf88:	e1a05000 	mov	r5, r0
  18bf8c:	e5940000 	ldr	r0, [r4]
  18bf90:	e59f811c 	ldr	r8, [pc, #284]	; 18c0b4 <sub_FF8C3364_my+0xb4>
  18bf94:	e350000b 	cmp	r0, #11
  18bf98:	03a06000 	moveq	r6, #0
  18bf9c:	01a05006 	moveq	r5, r6
  18bfa0:	0a000009 	beq	18bfcc <loc_FF8D79AC>
  18bfa4:	e3560001 	cmp	r6, #1
  18bfa8:	1a000007 	bne	18bfcc <loc_FF8D79AC>
  18bfac:	e1d400f4 	ldrsh	r0, [r4, #4]
  18bfb0:	e59f1100 	ldr	r1, [pc, #256]	; 18c0b8 <sub_FF8C3364_my+0xb8>
  18bfb4:	e3a02002 	mov	r2, #2
  18bfb8:	ebfff949 	bl	18a4e4 <sub_FF887B18>
  18bfbc:	e1c400b4 	strh	r0, [r4, #4]
  18bfc0:	e3a00000 	mov	r0, #0
  18bfc4:	e5870028 	str	r0, [r7, #40]	; 0x28
  18bfc8:	ea000001 	b	18bfd4 <loc_FF8D79B4>

0018bfcc <loc_FF8D79AC>:
  18bfcc:	e1d800b0 	ldrh	r0, [r8]
  18bfd0:	e1c400b4 	strh	r0, [r4, #4]

0018bfd4 <loc_FF8D79B4>:
  18bfd4:	e3550001 	cmp	r5, #1
  18bfd8:	11d800b8 	ldrhne	r0, [r8, #8]
  18bfdc:	1a000003 	bne	18bff0 <loc_FF8D79D0>
  18bfe0:	e1d400fc 	ldrsh	r0, [r4, #12]
  18bfe4:	e59f10d0 	ldr	r1, [pc, #208]	; 18c0bc <sub_FF8C3364_my+0xbc>
  18bfe8:	e3a02020 	mov	r2, #32
  18bfec:	ebfff985 	bl	18a608 <sub_FF8DC970>

0018bff0 <loc_FF8D79D0>:
  18bff0:	e1c400bc 	strh	r0, [r4, #12]
  18bff4:	e1d400f6 	ldrsh	r0, [r4, #6]
  18bff8:	eb000000 	bl	18c000 <sub_FF8C3364_my>
  18bffc:	e59ff0bc 	ldr	pc, [pc, #188]	; 18c0c0 <sub_FF8C3364_my+0xc0>

0018c000 <sub_FF8C3364_my>:
  18c000:	e92d4070 	push	{r4, r5, r6, lr}
  18c004:	e59f50b8 	ldr	r5, [pc, #184]	; 18c0c4 <sub_FF8C3364_my+0xc4>
  18c008:	e1a04000 	mov	r4, r0
  18c00c:	e5950004 	ldr	r0, [r5, #4]
  18c010:	e3500001 	cmp	r0, #1
  18c014:	159f20ac 	ldrne	r2, [pc, #172]	; 18c0c8 <sub_FF8C3364_my+0xc8>
  18c018:	159f10ac 	ldrne	r1, [pc, #172]	; 18c0cc <sub_FF8C3364_my+0xcc>
  18c01c:	13a00000 	movne	r0, #0
  18c020:	1bfffa72 	blne	18a9f0 <_DebugAssert>
  18c024:	e3740b03 	cmn	r4, #3072	; 0xc00
  18c028:	01d540f2 	ldrsheq	r4, [r5, #2]
  18c02c:	e3740b03 	cmn	r4, #3072	; 0xc00
  18c030:	059f2098 	ldreq	r2, [pc, #152]	; 18c0d0 <sub_FF8C3364_my+0xd0>
  18c034:	059f1090 	ldreq	r1, [pc, #144]	; 18c0cc <sub_FF8C3364_my+0xcc>
  18c038:	03a00000 	moveq	r0, #0
  18c03c:	e1c540b2 	strh	r4, [r5, #2]
  18c040:	0bfffa6a 	bleq	18a9f0 <_DebugAssert>
  18c044:	e1a00004 	mov	r0, r4
  18c048:	eb004c9f 	bl	19f2cc <apex2us>
  18c04c:	e1a04000 	mov	r4, r0
  18c050:	e1a00004 	mov	r0, r4
  18c054:	ebfff972 	bl	18a624 <sub_FF90F658>
  18c058:	e3100001 	tst	r0, #1
  18c05c:	08bd8070 	popeq	{r4, r5, r6, pc}
  18c060:	e8bd4070 	pop	{r4, r5, r6, lr}
  18c064:	e59f2068 	ldr	r2, [pc, #104]	; 18c0d4 <sub_FF8C3364_my+0xd4>
  18c068:	e59f105c 	ldr	r1, [pc, #92]	; 18c0cc <sub_FF8C3364_my+0xcc>
  18c06c:	e3a00000 	mov	r0, #0
  18c070:	eafffa5e 	b	18a9f0 <_DebugAssert>
  18c074:	0001cd88 	.word	0x0001cd88
  18c078:	00007590 	.word	0x00007590
  18c07c:	0001ce88 	.word	0x0001ce88
  18c080:	ff99a560 	.word	0xff99a560
  18c084:	000043dc 	.word	0x000043dc
  18c088:	00000bb8 	.word	0x00000bb8
  18c08c:	0005be18 	.word	0x0005be18
  18c090:	ff8d6454 	.word	0xff8d6454
  18c094:	00001798 	.word	0x00001798
  18c098:	ff8d6464 	.word	0xff8d6464
  18c09c:	000017a2 	.word	0x000017a2
  18c0a0:	ff8d6484 	.word	0xff8d6484
  18c0a4:	fffff400 	.word	0xfffff400
  18c0a8:	000017da 	.word	0x000017da
  18c0ac:	ff8d6c20 	.word	0xff8d6c20
  18c0b0:	0005be24 	.word	0x0005be24
  18c0b4:	0005be30 	.word	0x0005be30
  18c0b8:	ff8d6444 	.word	0xff8d6444
  18c0bc:	ff8d64c8 	.word	0xff8d64c8
  18c0c0:	ff8d79dc 	.word	0xff8d79dc
  18c0c4:	00003fbc 	.word	0x00003fbc
  18c0c8:	0000016b 	.word	0x0000016b
  18c0cc:	ff8c3108 	.word	0xff8c3108
  18c0d0:	00000171 	.word	0x00000171
  18c0d4:	00000176 	.word	0x00000176

0018c0d8 <change_video_tables>:
  18c0d8:	e12fff1e 	bx	lr

0018c0dc <set_quality>:
  18c0dc:	e92d4010 	push	{r4, lr}
  18c0e0:	e1a04000 	mov	r4, r0
  18c0e4:	e59f3030 	ldr	r3, [pc, #48]	; 18c11c <set_quality+0x40>
  18c0e8:	e593252c 	ldr	r2, [r3, #1324]	; 0x52c
  18c0ec:	e3520000 	cmp	r2, #0
  18c0f0:	0a000007 	beq	18c114 <set_quality+0x38>
  18c0f4:	e5933530 	ldr	r3, [r3, #1328]	; 0x530
  18c0f8:	e2433001 	sub	r3, r3, #1
  18c0fc:	e3a0001d 	mov	r0, #29
  18c100:	e0000093 	mul	r0, r3, r0
  18c104:	e3e01061 	mvn	r1, #97	; 0x61
  18c108:	eb0043b6 	bl	19cfe8 <__aeabi_idiv>
  18c10c:	e280000c 	add	r0, r0, #12
  18c110:	e5840000 	str	r0, [r4]
  18c114:	e8bd4010 	pop	{r4, lr}
  18c118:	e12fff1e 	bx	lr
  18c11c:	001aaef0 	.word	0x001aaef0

0018c120 <movie_record_task>:
  18c120:	e92d47fc 	push	{r2, r3, r4, r5, r6, r7, r8, r9, sl, lr}
  18c124:	e59f8190 	ldr	r8, [pc, #400]	; 18c2bc <loc_FF995ED0+0x20>
  18c128:	e59f4190 	ldr	r4, [pc, #400]	; 18c2c0 <loc_FF995ED0+0x24>
  18c12c:	e59f9190 	ldr	r9, [pc, #400]	; 18c2c4 <loc_FF995ED0+0x28>
  18c130:	e59fa190 	ldr	sl, [pc, #400]	; 18c2c8 <loc_FF995ED0+0x2c>
  18c134:	e3e07000 	mvn	r7, #0
  18c138:	e3a05001 	mov	r5, #1
  18c13c:	e3a06000 	mov	r6, #0

0018c140 <loc_FF995D7C>:
  18c140:	e5940030 	ldr	r0, [r4, #48]	; 0x30
  18c144:	e3a02000 	mov	r2, #0
  18c148:	e28d1004 	add	r1, sp, #4
  18c14c:	ebfff8bc 	bl	18a444 <sub_FF829E30>
  18c150:	e5940038 	ldr	r0, [r4, #56]	; 0x38
  18c154:	e3500000 	cmp	r0, #0
  18c158:	15940014 	ldrne	r0, [r4, #20]
  18c15c:	13500002 	cmpne	r0, #2
  18c160:	1594004c 	ldrne	r0, [r4, #76]	; 0x4c
  18c164:	13500006 	cmpne	r0, #6
  18c168:	1a00004b 	bne	18c29c <loc_FF995ED0>
  18c16c:	e59d0004 	ldr	r0, [sp, #4]
  18c170:	e5901000 	ldr	r1, [r0]
  18c174:	e2411002 	sub	r1, r1, #2
  18c178:	e351000d 	cmp	r1, #13
  18c17c:	308ff101 	addcc	pc, pc, r1, lsl #2
  18c180:	ea000045 	b	18c29c <loc_FF995ED0>
  18c184:	ea00001f 	b	18c208 <loc_FF995E44>
  18c188:	ea00002b 	b	18c23c <loc_FF995E70>
  18c18c:	ea00002e 	b	18c24c <loc_FF995E80>
  18c190:	ea00002f 	b	18c254 <loc_FF995E88>
  18c194:	ea00001d 	b	18c210 <loc_FF995E4C>
  18c198:	ea00002f 	b	18c25c <loc_FF995E90>
  18c19c:	ea000039 	b	18c288 <loc_FF995EBC>
  18c1a0:	ea00003a 	b	18c290 <loc_FF995EC4>
  18c1a4:	ea00001e 	b	18c224 <loc_FF995E58>
  18c1a8:	ea00003b 	b	18c29c <loc_FF995ED0>
  18c1ac:	ea000039 	b	18c298 <loc_FF995ECC>
  18c1b0:	ea00000b 	b	18c1e4 <loc_FF995E20>
  18c1b4:	eaffffff 	b	18c1b8 <loc_FF995DF4>

0018c1b8 <loc_FF995DF4>:
  18c1b8:	e5846048 	str	r6, [r4, #72]	; 0x48
  18c1bc:	e584603c 	str	r6, [r4, #60]	; 0x3c
  18c1c0:	e58470d4 	str	r7, [r4, #212]	; 0xd4
  18c1c4:	e1c460b8 	strh	r6, [r4, #8]
  18c1c8:	e58480b4 	str	r8, [r4, #180]	; 0xb4
  18c1cc:	e5940014 	ldr	r0, [r4, #20]
  18c1d0:	e2800001 	add	r0, r0, #1
  18c1d4:	e5840014 	str	r0, [r4, #20]
  18c1d8:	e3a00006 	mov	r0, #6
  18c1dc:	e584004c 	str	r0, [r4, #76]	; 0x4c
  18c1e0:	ea000006 	b	18c200 <loc_FF995E3C>

0018c1e4 <loc_FF995E20>:
  18c1e4:	e5846048 	str	r6, [r4, #72]	; 0x48
  18c1e8:	e58470d4 	str	r7, [r4, #212]	; 0xd4
  18c1ec:	e58480b4 	str	r8, [r4, #180]	; 0xb4
  18c1f0:	e5940014 	ldr	r0, [r4, #20]
  18c1f4:	e2800001 	add	r0, r0, #1
  18c1f8:	e5840014 	str	r0, [r4, #20]
  18c1fc:	e584504c 	str	r5, [r4, #76]	; 0x4c

0018c200 <loc_FF995E3C>:
  18c200:	e584500c 	str	r5, [r4, #12]
  18c204:	ea000024 	b	18c29c <loc_FF995ED0>

0018c208 <loc_FF995E44>:
  18c208:	ebfff90a 	bl	18a638 <sub_FF995644>
  18c20c:	ea000022 	b	18c29c <loc_FF995ED0>

0018c210 <loc_FF995E4C>:
  18c210:	e59410b4 	ldr	r1, [r4, #180]	; 0xb4
  18c214:	e12fff31 	blx	r1
  18c218:	e59f00ac 	ldr	r0, [pc, #172]	; 18c2cc <loc_FF995ED0+0x30>
  18c21c:	ebffffae 	bl	18c0dc <set_quality>
  18c220:	ea00001d 	b	18c29c <loc_FF995ED0>

0018c224 <loc_FF995E58>:
  18c224:	e5901018 	ldr	r1, [r0, #24]
  18c228:	e5902028 	ldr	r2, [r0, #40]	; 0x28
  18c22c:	e5903024 	ldr	r3, [r0, #36]	; 0x24
  18c230:	e5900004 	ldr	r0, [r0, #4]
  18c234:	ebfff926 	bl	18a6d4 <sub_FFAD3350>
  18c238:	ea000017 	b	18c29c <loc_FF995ED0>

0018c23c <loc_FF995E70>:
  18c23c:	e594004c 	ldr	r0, [r4, #76]	; 0x4c
  18c240:	e3500005 	cmp	r0, #5
  18c244:	1584503c 	strne	r5, [r4, #60]	; 0x3c
  18c248:	ea000013 	b	18c29c <loc_FF995ED0>

0018c24c <loc_FF995E80>:
  18c24c:	ebfff8f8 	bl	18a634 <sub_FF9952A4>
  18c250:	ea000011 	b	18c29c <loc_FF995ED0>

0018c254 <loc_FF995E88>:
  18c254:	ebfff8f5 	bl	18a630 <sub_FF995164>
  18c258:	ea00000f 	b	18c29c <loc_FF995ED0>

0018c25c <loc_FF995E90>:
  18c25c:	e59f006c 	ldr	r0, [pc, #108]	; 18c2d0 <loc_FF995ED0+0x34>
  18c260:	e5900008 	ldr	r0, [r0, #8]
  18c264:	e3500000 	cmp	r0, #0
  18c268:	159f2064 	ldrne	r2, [pc, #100]	; 18c2d4 <loc_FF995ED0+0x38>
  18c26c:	159f0064 	ldrne	r0, [pc, #100]	; 18c2d8 <loc_FF995ED0+0x3c>
  18c270:	13a03000 	movne	r3, #0
  18c274:	11a01003 	movne	r1, r3
  18c278:	1bfff895 	blne	18a4d4 <sub_FF86EA38>
  18c27c:	e3a00003 	mov	r0, #3
  18c280:	e584004c 	str	r0, [r4, #76]	; 0x4c
  18c284:	ea000004 	b	18c29c <loc_FF995ED0>

0018c288 <loc_FF995EBC>:
  18c288:	ebfff8e7 	bl	18a62c <sub_FF994FF8>
  18c28c:	ea000002 	b	18c29c <loc_FF995ED0>

0018c290 <loc_FF995EC4>:
  18c290:	ebfff8e9 	bl	18a63c <sub_FF9966D4>
  18c294:	ea000000 	b	18c29c <loc_FF995ED0>

0018c298 <loc_FF995ECC>:
  18c298:	ebfff8e2 	bl	18a628 <sub_FF994ED4>

0018c29c <loc_FF995ED0>:
  18c29c:	e59d1004 	ldr	r1, [sp, #4]
  18c2a0:	e59f3034 	ldr	r3, [pc, #52]	; 18c2dc <loc_FF995ED0+0x40>
  18c2a4:	e5816000 	str	r6, [r1]
  18c2a8:	e58d9000 	str	r9, [sp]
  18c2ac:	e5940034 	ldr	r0, [r4, #52]	; 0x34
  18c2b0:	e1a0200a 	mov	r2, sl
  18c2b4:	ebfff859 	bl	18a420 <sub_FF826774>
  18c2b8:	eaffffa0 	b	18c140 <loc_FF995D7C>
  18c2bc:	ff99595c 	.word	0xff99595c
  18c2c0:	00007080 	.word	0x00007080
  18c2c4:	00000709 	.word	0x00000709
  18c2c8:	00002710 	.word	0x00002710
  18c2cc:	00007244 	.word	0x00007244
  18c2d0:	000d08c8 	.word	0x000d08c8
  18c2d4:	ff995084 	.word	0xff995084
  18c2d8:	ff99510c 	.word	0xff99510c
  18c2dc:	ff994bb0 	.word	0xff994bb0

0018c2e0 <filewrite_get_jpeg_chunk>:
  18c2e0:	e92d45f0 	push	{r4, r5, r6, r7, r8, sl, lr}
  18c2e4:	e1a04000 	mov	r4, r0
  18c2e8:	e1a05001 	mov	r5, r1
  18c2ec:	e1a06002 	mov	r6, r2
  18c2f0:	e1a08003 	mov	r8, r3
  18c2f4:	e3e03000 	mvn	r3, #0
  18c2f8:	e5883000 	str	r3, [r8]
  18c2fc:	e59fa0bc 	ldr	sl, [pc, #188]	; 18c3c0 <filewrite_get_jpeg_chunk+0xe0>
  18c300:	e59a3000 	ldr	r3, [sl]
  18c304:	e3530000 	cmp	r3, #0
  18c308:	1a00000a 	bne	18c338 <filewrite_get_jpeg_chunk+0x58>
  18c30c:	e3a07032 	mov	r7, #50	; 0x32
  18c310:	e3a0000a 	mov	r0, #10
  18c314:	ebfff9fc 	bl	18ab0c <_SleepTask>
  18c318:	e59a3000 	ldr	r3, [sl]
  18c31c:	e3530000 	cmp	r3, #0
  18c320:	1a000004 	bne	18c338 <filewrite_get_jpeg_chunk+0x58>
  18c324:	e2577001 	subs	r7, r7, #1
  18c328:	1afffff8 	bne	18c310 <filewrite_get_jpeg_chunk+0x30>
  18c32c:	e5847000 	str	r7, [r4]
  18c330:	e5857000 	str	r7, [r5]
  18c334:	ea00001e 	b	18c3b4 <filewrite_get_jpeg_chunk+0xd4>
  18c338:	e59f2080 	ldr	r2, [pc, #128]	; 18c3c0 <filewrite_get_jpeg_chunk+0xe0>
  18c33c:	e892000a 	ldm	r2, {r1, r3}
  18c340:	e0810183 	add	r0, r1, r3, lsl #3
  18c344:	e791c183 	ldr	ip, [r1, r3, lsl #3]
  18c348:	e584c000 	str	ip, [r4]
  18c34c:	e5900004 	ldr	r0, [r0, #4]
  18c350:	e5850000 	str	r0, [r5]
  18c354:	e3560000 	cmp	r6, #0
  18c358:	0592c00c 	ldreq	ip, [r2, #12]
  18c35c:	0582c008 	streq	ip, [r2, #8]
  18c360:	e592c008 	ldr	ip, [r2, #8]
  18c364:	e060000c 	rsb	r0, r0, ip
  18c368:	e5820008 	str	r0, [r2, #8]
  18c36c:	e3530000 	cmp	r3, #0
  18c370:	059f2048 	ldreq	r2, [pc, #72]	; 18c3c0 <filewrite_get_jpeg_chunk+0xe0>
  18c374:	05922010 	ldreq	r2, [r2, #16]
  18c378:	05882000 	streq	r2, [r8]
  18c37c:	e2833001 	add	r3, r3, #1
  18c380:	e59f2038 	ldr	r2, [pc, #56]	; 18c3c0 <filewrite_get_jpeg_chunk+0xe0>
  18c384:	e5823004 	str	r3, [r2, #4]
  18c388:	e3500000 	cmp	r0, #0
  18c38c:	da000008 	ble	18c3b4 <filewrite_get_jpeg_chunk+0xd4>
  18c390:	e3530006 	cmp	r3, #6
  18c394:	c3a00003 	movgt	r0, #3
  18c398:	ca000006 	bgt	18c3b8 <filewrite_get_jpeg_chunk+0xd8>
  18c39c:	e0813183 	add	r3, r1, r3, lsl #3
  18c3a0:	e5930004 	ldr	r0, [r3, #4]
  18c3a4:	e3500000 	cmp	r0, #0
  18c3a8:	13a00001 	movne	r0, #1
  18c3ac:	03a00003 	moveq	r0, #3
  18c3b0:	ea000000 	b	18c3b8 <filewrite_get_jpeg_chunk+0xd8>
  18c3b4:	e3a00002 	mov	r0, #2
  18c3b8:	e8bd45f0 	pop	{r4, r5, r6, r7, r8, sl, lr}
  18c3bc:	e12fff1e 	bx	lr
  18c3c0:	001a9d68 	.word	0x001a9d68

0018c3c4 <filewrite_set_discard_jpeg>:
  18c3c4:	e59f3004 	ldr	r3, [pc, #4]	; 18c3d0 <filewrite_set_discard_jpeg+0xc>
  18c3c8:	e5830014 	str	r0, [r3, #20]
  18c3cc:	e12fff1e 	bx	lr
  18c3d0:	001a9d68 	.word	0x001a9d68

0018c3d4 <filewrite_main_hook>:
  18c3d4:	e92d4010 	push	{r4, lr}
  18c3d8:	e59f404c 	ldr	r4, [pc, #76]	; 18c42c <filewrite_main_hook+0x58>
  18c3dc:	e3a03000 	mov	r3, #0
  18c3e0:	e5843004 	str	r3, [r4, #4]
  18c3e4:	e590304c 	ldr	r3, [r0, #76]	; 0x4c
  18c3e8:	e3130040 	tst	r3, #64	; 0x40
  18c3ec:	1a000003 	bne	18c400 <filewrite_main_hook+0x2c>
  18c3f0:	e5903004 	ldr	r3, [r0, #4]
  18c3f4:	e3530000 	cmp	r3, #0
  18c3f8:	03e03000 	mvneq	r3, #0
  18c3fc:	0a000000 	beq	18c404 <filewrite_main_hook+0x30>
  18c400:	e5903004 	ldr	r3, [r0, #4]
  18c404:	e5843010 	str	r3, [r4, #16]
  18c408:	e5903008 	ldr	r3, [r0, #8]
  18c40c:	e584300c 	str	r3, [r4, #12]
  18c410:	e2800014 	add	r0, r0, #20
  18c414:	e5840000 	str	r0, [r4]
  18c418:	eb004d40 	bl	19f920 <__remotecap_jpeg_available_from_arm>
  18c41c:	e3a03000 	mov	r3, #0
  18c420:	e5843000 	str	r3, [r4]
  18c424:	e8bd4010 	pop	{r4, lr}
  18c428:	e12fff1e 	bx	lr
  18c42c:	001a9d68 	.word	0x001a9d68

0018c430 <filewrite_jpeg_complete>:
  18c430:	e52de004 	push	{lr}		; (str lr, [sp, #-4]!)
  18c434:	e59f303c 	ldr	r3, [pc, #60]	; 18c478 <filewrite_jpeg_complete+0x48>
  18c438:	e5930014 	ldr	r0, [r3, #20]
  18c43c:	e3500000 	cmp	r0, #0
  18c440:	0a00000a 	beq	18c470 <filewrite_jpeg_complete+0x40>
  18c444:	e5931018 	ldr	r1, [r3, #24]
  18c448:	e593200c 	ldr	r2, [r3, #12]
  18c44c:	e1510002 	cmp	r1, r2
  18c450:	ba000005 	blt	18c46c <filewrite_jpeg_complete+0x3c>
  18c454:	e3a02000 	mov	r2, #0
  18c458:	e583201c 	str	r2, [r3, #28]
  18c45c:	e5832018 	str	r2, [r3, #24]
  18c460:	e5832014 	str	r2, [r3, #20]
  18c464:	e3a00001 	mov	r0, #1
  18c468:	eb004d2f 	bl	19f92c <__remotecap_type_complete_from_arm>
  18c46c:	e3a00001 	mov	r0, #1
  18c470:	e49de004 	pop	{lr}		; (ldr lr, [sp], #4)
  18c474:	e12fff1e 	bx	lr
  18c478:	001a9d68 	.word	0x001a9d68

0018c47c <remotecap_jpeg_chunks_done>:
  18c47c:	e3a02000 	mov	r2, #0
  18c480:	e59f3004 	ldr	r3, [pc, #4]	; 18c48c <remotecap_jpeg_chunks_done+0x10>
  18c484:	e5832000 	str	r2, [r3]
  18c488:	e12fff1e 	bx	lr
  18c48c:	001a9d68 	.word	0x001a9d68

0018c490 <fwt_open>:
  18c490:	e52de004 	push	{lr}		; (str lr, [sp, #-4]!)
  18c494:	e59f301c 	ldr	r3, [pc, #28]	; 18c4b8 <fwt_open+0x28>
  18c498:	e593c014 	ldr	ip, [r3, #20]
  18c49c:	e35c0000 	cmp	ip, #0
  18c4a0:	13a02001 	movne	r2, #1
  18c4a4:	1583201c 	strne	r2, [r3, #28]
  18c4a8:	13a000ff 	movne	r0, #255	; 0xff
  18c4ac:	0bfff97d 	bleq	18aaa8 <_Open>
  18c4b0:	e49de004 	pop	{lr}		; (ldr lr, [sp], #4)
  18c4b4:	e12fff1e 	bx	lr
  18c4b8:	001a9d68 	.word	0x001a9d68

0018c4bc <fwt_write>:
  18c4bc:	e92d4010 	push	{r4, lr}
  18c4c0:	e1a03002 	mov	r3, r2
  18c4c4:	e59fc028 	ldr	ip, [pc, #40]	; 18c4f4 <fwt_write+0x38>
  18c4c8:	e59c401c 	ldr	r4, [ip, #28]
  18c4cc:	e3540000 	cmp	r4, #0
  18c4d0:	159c2018 	ldrne	r2, [ip, #24]
  18c4d4:	10822003 	addne	r2, r2, r3
  18c4d8:	158c2018 	strne	r2, [ip, #24]
  18c4dc:	1a000001 	bne	18c4e8 <fwt_write+0x2c>
  18c4e0:	ebfff992 	bl	18ab30 <_Write>
  18c4e4:	e1a03000 	mov	r3, r0
  18c4e8:	e1a00003 	mov	r0, r3
  18c4ec:	e8bd4010 	pop	{r4, lr}
  18c4f0:	e12fff1e 	bx	lr
  18c4f4:	001a9d68 	.word	0x001a9d68

0018c4f8 <fwt_lseek>:
  18c4f8:	e52de004 	push	{lr}		; (str lr, [sp, #-4]!)
  18c4fc:	e1a03001 	mov	r3, r1
  18c500:	e59fc01c 	ldr	ip, [pc, #28]	; 18c524 <fwt_lseek+0x2c>
  18c504:	e59cc01c 	ldr	ip, [ip, #28]
  18c508:	e35c0000 	cmp	ip, #0
  18c50c:	1a000001 	bne	18c518 <fwt_lseek+0x20>
  18c510:	ebfff996 	bl	18ab70 <_lseek>
  18c514:	e1a03000 	mov	r3, r0
  18c518:	e1a00003 	mov	r0, r3
  18c51c:	e49de004 	pop	{lr}		; (ldr lr, [sp], #4)
  18c520:	e12fff1e 	bx	lr
  18c524:	001a9d68 	.word	0x001a9d68

0018c528 <fwt_close>:
  18c528:	e92d4030 	push	{r4, r5, lr}
  18c52c:	e59f4024 	ldr	r4, [pc, #36]	; 18c558 <fwt_close+0x30>
  18c530:	e594501c 	ldr	r5, [r4, #28]
  18c534:	e3550000 	cmp	r5, #0
  18c538:	1a000002 	bne	18c548 <fwt_close+0x20>
  18c53c:	ebfff929 	bl	18a9e8 <_Close>
  18c540:	e5845018 	str	r5, [r4, #24]
  18c544:	ea000001 	b	18c550 <fwt_close+0x28>
  18c548:	ebffffb8 	bl	18c430 <filewrite_jpeg_complete>
  18c54c:	e3a00000 	mov	r0, #0
  18c550:	e8bd4030 	pop	{r4, r5, lr}
  18c554:	e12fff1e 	bx	lr
  18c558:	001a9d68 	.word	0x001a9d68

0018c55c <filewritetask>:
  18c55c:	e92d40fe 	push	{r1, r2, r3, r4, r5, r6, r7, lr}
  18c560:	e59f549c 	ldr	r5, [pc, #1180]	; 18ca04 <loc_FFAB91E0+0x8>
  18c564:	e3a06000 	mov	r6, #0

0018c568 <loc_FFAB8CFC>:
  18c568:	e5950010 	ldr	r0, [r5, #16]
  18c56c:	e3a02000 	mov	r2, #0
  18c570:	e28d1008 	add	r1, sp, #8
  18c574:	ebfff7b2 	bl	18a444 <sub_FF829E30>
  18c578:	e3500000 	cmp	r0, #0
  18c57c:	159f2484 	ldrne	r2, [pc, #1156]	; 18ca08 <loc_FFAB91E0+0xc>
  18c580:	159f1484 	ldrne	r1, [pc, #1156]	; 18ca0c <loc_FFAB91E0+0x10>
  18c584:	13a00000 	movne	r0, #0
  18c588:	1bfff918 	blne	18a9f0 <_DebugAssert>
  18c58c:	e59d0008 	ldr	r0, [sp, #8]
  18c590:	e5901000 	ldr	r1, [r0]
  18c594:	e351000d 	cmp	r1, #13
  18c598:	308ff101 	addcc	pc, pc, r1, lsl #2
  18c59c:	eafffff1 	b	18c568 <loc_FFAB8CFC>
  18c5a0:	ea000064 	b	18c738 <loc_FFAB8EAC>
  18c5a4:	ea000063 	b	18c738 <loc_FFAB8EAC>
  18c5a8:	ea000062 	b	18c738 <loc_FFAB8EAC>
  18c5ac:	ea000061 	b	18c738 <loc_FFAB8EAC>
  18c5b0:	ea000060 	b	18c738 <loc_FFAB8EAC>
  18c5b4:	ea00005f 	b	18c738 <loc_FFAB8EAC>
  18c5b8:	ea00005e 	b	18c738 <loc_FFAB8EAC>
  18c5bc:	ea00005f 	b	18c740 <loc_FFAB8EB4>
  18c5c0:	ea000003 	b	18c5d4 <loc_FFAB8D68>
  18c5c4:	ea000036 	b	18c6a4 <loc_FFAB8E28>
  18c5c8:	ea000041 	b	18c6d4 <loc_FFAB8E58>
  18c5cc:	ea00001d 	b	18c648 <loc_FFAB8DDC>
  18c5d0:	ea000031 	b	18c69c <loc_FFAB8E20>

0018c5d4 <loc_FFAB8D68>:
  18c5d4:	e1a04005 	mov	r4, r5
  18c5d8:	e58d6000 	str	r6, [sp]

0018c5dc <loc_FFAB8D70>:
  18c5dc:	e5940010 	ldr	r0, [r4, #16]
  18c5e0:	e1a0100d 	mov	r1, sp
  18c5e4:	ebfff797 	bl	18a448 <sub_FF82A0AC>
  18c5e8:	e59d0000 	ldr	r0, [sp]
  18c5ec:	e3500000 	cmp	r0, #0
  18c5f0:	0a000004 	beq	18c608 <loc_FFAB8D9C>
  18c5f4:	e5940010 	ldr	r0, [r4, #16]
  18c5f8:	e3a02000 	mov	r2, #0
  18c5fc:	e28d1004 	add	r1, sp, #4
  18c600:	ebfff78f 	bl	18a444 <sub_FF829E30>
  18c604:	eafffff4 	b	18c5dc <loc_FFAB8D70>

0018c608 <loc_FFAB8D9C>:
  18c608:	e5940004 	ldr	r0, [r4, #4]
  18c60c:	e3700001 	cmn	r0, #1
  18c610:	0a000009 	beq	18c63c <loc_FFAB8DD0>
  18c614:	ebffffc3 	bl	18c528 <fwt_close>
  18c618:	e3e00000 	mvn	r0, #0
  18c61c:	e5840004 	str	r0, [r4, #4]
  18c620:	e3a01000 	mov	r1, #0
  18c624:	e3a00048 	mov	r0, #72	; 0x48
  18c628:	ebfff7d2 	bl	18a578 <sub_FF8B0664>
  18c62c:	e59f03dc 	ldr	r0, [pc, #988]	; 18ca10 <loc_FFAB91E0+0x14>
  18c630:	ebfff799 	bl	18a49c <sub_FF83222C>
  18c634:	e3a01000 	mov	r1, #0
  18c638:	ebfff796 	bl	18a498 <sub_FF8300F8>

0018c63c <loc_FFAB8DD0>:
  18c63c:	e594000c 	ldr	r0, [r4, #12]
  18c640:	ebfff90f 	bl	18aa84 <_GiveSemaphore>
  18c644:	eaffffc7 	b	18c568 <loc_FFAB8CFC>

0018c648 <loc_FFAB8DDC>:
  18c648:	e1a04000 	mov	r4, r0
  18c64c:	e2800058 	add	r0, r0, #88	; 0x58
  18c650:	ebfff791 	bl	18a49c <sub_FF83222C>
  18c654:	e3a01000 	mov	r1, #0
  18c658:	ebfff78d 	bl	18a494 <sub_FF82FFB8>
  18c65c:	e3a01000 	mov	r1, #0
  18c660:	e3a00047 	mov	r0, #71	; 0x47
  18c664:	ebfff7c3 	bl	18a578 <sub_FF8B0664>
  18c668:	e594000c 	ldr	r0, [r4, #12]
  18c66c:	ebfff785 	bl	18a488 <sub_FF82F038>
  18c670:	e2840058 	add	r0, r4, #88	; 0x58
  18c674:	e59f3398 	ldr	r3, [pc, #920]	; 18ca14 <loc_FFAB91E0+0x18>
  18c678:	e5933000 	ldr	r3, [r3]
  18c67c:	e3530000 	cmp	r3, #0
  18c680:	1a000024 	bne	18c718 <loc_A>
  18c684:	ebfff769 	bl	18a430 <sub_FF8281A4>
  18c688:	e3a01000 	mov	r1, #0
  18c68c:	e3a00048 	mov	r0, #72	; 0x48
  18c690:	ebfff7b8 	bl	18a578 <sub_FF8B0664>
  18c694:	e2840058 	add	r0, r4, #88	; 0x58
  18c698:	ea00001e 	b	18c718 <loc_A>

0018c69c <loc_FFAB8E20>:
  18c69c:	eb000029 	bl	18c748 <sub_FFAB89A4_my>
  18c6a0:	eaffffb0 	b	18c568 <loc_FFAB8CFC>

0018c6a4 <loc_FFAB8E28>:
  18c6a4:	e5901004 	ldr	r1, [r0, #4]
  18c6a8:	e1a04000 	mov	r4, r0
  18c6ac:	e5950004 	ldr	r0, [r5, #4]
  18c6b0:	e3a02000 	mov	r2, #0
  18c6b4:	ebffff8f 	bl	18c4f8 <fwt_lseek>
  18c6b8:	e3700001 	cmn	r0, #1
  18c6bc:	059f0354 	ldreq	r0, [pc, #852]	; 18ca18 <loc_FFAB91E0+0x1c>
  18c6c0:	01a01004 	moveq	r1, r4
  18c6c4:	05840010 	streq	r0, [r4, #16]
  18c6c8:	03a00007 	moveq	r0, #7
  18c6cc:	0bfff7fc 	bleq	18a6c4 <sub_FFAB88E4>
  18c6d0:	eaffffa4 	b	18c568 <loc_FFAB8CFC>

0018c6d4 <loc_FFAB8E58>:
  18c6d4:	e1a04000 	mov	r4, r0
  18c6d8:	e1d005d8 	ldrsb	r0, [r0, #88]	; 0x58
  18c6dc:	e3500000 	cmp	r0, #0
  18c6e0:	0affffa0 	beq	18c568 <loc_FFAB8CFC>
  18c6e4:	e5cd0004 	strb	r0, [sp, #4]
  18c6e8:	e2840058 	add	r0, r4, #88	; 0x58
  18c6ec:	e5cd6005 	strb	r6, [sp, #5]
  18c6f0:	ebfff769 	bl	18a49c <sub_FF83222C>
  18c6f4:	e3a01000 	mov	r1, #0
  18c6f8:	ebfff765 	bl	18a494 <sub_FF82FFB8>
  18c6fc:	e59f3310 	ldr	r3, [pc, #784]	; 18ca14 <loc_FFAB91E0+0x18>
  18c700:	e5933000 	ldr	r3, [r3]
  18c704:	e3530000 	cmp	r3, #0
  18c708:	1a000001 	bne	18c714 <loc_B>
  18c70c:	e28d0004 	add	r0, sp, #4
  18c710:	ebfff75d 	bl	18a48c <sub_FF82F050>

0018c714 <loc_B>:
  18c714:	e2840058 	add	r0, r4, #88	; 0x58

0018c718 <loc_A>:
  18c718:	ebfff75f 	bl	18a49c <sub_FF83222C>
  18c71c:	e595101c 	ldr	r1, [r5, #28]
  18c720:	ebfff75c 	bl	18a498 <sub_FF8300F8>
  18c724:	e5951014 	ldr	r1, [r5, #20]
  18c728:	e3510000 	cmp	r1, #0
  18c72c:	15940010 	ldrne	r0, [r4, #16]
  18c730:	112fff31 	blxne	r1
  18c734:	eaffff8b 	b	18c568 <loc_FFAB8CFC>

0018c738 <loc_FFAB8EAC>:
  18c738:	eb000077 	bl	18c91c <sub_FFAB9100_my>
  18c73c:	eaffff89 	b	18c568 <loc_FFAB8CFC>

0018c740 <loc_FFAB8EB4>:
  18c740:	eb0000bf 	bl	18ca44 <sub_FFAB8B5C_my>
  18c744:	eaffff87 	b	18c568 <loc_FFAB8CFC>

0018c748 <sub_FFAB89A4_my>:
  18c748:	e92d43f0 	push	{r4, r5, r6, r7, r8, r9, lr}
  18c74c:	e1a04000 	mov	r4, r0
  18c750:	e1a00004 	mov	r0, r4
  18c754:	ebffff1e 	bl	18c3d4 <filewrite_main_hook>
  18c758:	e1a00004 	mov	r0, r4
  18c75c:	e590004c 	ldr	r0, [r0, #76]	; 0x4c
  18c760:	e24dd03c 	sub	sp, sp, #60	; 0x3c
  18c764:	e3100001 	tst	r0, #1
  18c768:	0a00005f 	beq	18c8ec <loc_C>
  18c76c:	e59f7290 	ldr	r7, [pc, #656]	; 18ca04 <loc_FFAB91E0+0x8>
  18c770:	e5970018 	ldr	r0, [r7, #24]
  18c774:	e3500000 	cmp	r0, #0
  18c778:	112fff30 	blxne	r0
  18c77c:	e2840058 	add	r0, r4, #88	; 0x58
  18c780:	ebfff745 	bl	18a49c <sub_FF83222C>
  18c784:	e3a01000 	mov	r1, #0
  18c788:	ebfff741 	bl	18a494 <sub_FF82FFB8>
  18c78c:	e3a01000 	mov	r1, #0
  18c790:	e3a00047 	mov	r0, #71	; 0x47
  18c794:	ebfff777 	bl	18a578 <sub_FF8B0664>
  18c798:	e594000c 	ldr	r0, [r4, #12]
  18c79c:	ebfff739 	bl	18a488 <sub_FF82F038>
  18c7a0:	e594004c 	ldr	r0, [r4, #76]	; 0x4c
  18c7a4:	e59f5270 	ldr	r5, [pc, #624]	; 18ca1c <loc_FFAB91E0+0x20>
  18c7a8:	e3100010 	tst	r0, #16
  18c7ac:	13a05009 	movne	r5, #9
  18c7b0:	1a000001 	bne	18c7bc <loc_FFAB8A0C>
  18c7b4:	e3100040 	tst	r0, #64	; 0x40
  18c7b8:	13a05001 	movne	r5, #1

0018c7bc <loc_FFAB8A0C>:
  18c7bc:	e3100020 	tst	r0, #32
  18c7c0:	1a000002 	bne	18c7d0 <loc_FFAB8A20>
  18c7c4:	e5940054 	ldr	r0, [r4, #84]	; 0x54
  18c7c8:	e3500001 	cmp	r0, #1
  18c7cc:	1a000000 	bne	18c7d4 <loc_FFAB8A24>

0018c7d0 <loc_FFAB8A20>:
  18c7d0:	e3855902 	orr	r5, r5, #32768	; 0x8000

0018c7d4 <loc_FFAB8A24>:
  18c7d4:	e59f9244 	ldr	r9, [pc, #580]	; 18ca20 <loc_FFAB91E0+0x24>
  18c7d8:	e2848058 	add	r8, r4, #88	; 0x58
  18c7dc:	e594600c 	ldr	r6, [r4, #12]
  18c7e0:	e1a02009 	mov	r2, r9
  18c7e4:	e1a01005 	mov	r1, r5
  18c7e8:	e1a00008 	mov	r0, r8
  18c7ec:	ebffff27 	bl	18c490 <fwt_open>
  18c7f0:	e3700001 	cmn	r0, #1
  18c7f4:	1a000016 	bne	18c854 <loc_FFAB8AA4>
  18c7f8:	e1a00008 	mov	r0, r8
  18c7fc:	ebfff70b 	bl	18a430 <sub_FF8281A4>
  18c800:	e3a0200f 	mov	r2, #15
  18c804:	e1a01008 	mov	r1, r8
  18c808:	e28d0004 	add	r0, sp, #4
  18c80c:	ebfff6f6 	bl	18a3ec <sub_006BA828>
  18c810:	e3a00000 	mov	r0, #0
  18c814:	e59f1208 	ldr	r1, [pc, #520]	; 18ca24 <loc_FFAB91E0+0x28>
  18c818:	e5cd0013 	strb	r0, [sp, #19]
  18c81c:	e58d1024 	str	r1, [sp, #36]	; 0x24
  18c820:	e3a01010 	mov	r1, #16
  18c824:	e58d002c 	str	r0, [sp, #44]	; 0x2c
  18c828:	e58d1028 	str	r1, [sp, #40]	; 0x28
  18c82c:	e28d1024 	add	r1, sp, #36	; 0x24
  18c830:	e28d0004 	add	r0, sp, #4
  18c834:	e58d6030 	str	r6, [sp, #48]	; 0x30
  18c838:	e58d6034 	str	r6, [sp, #52]	; 0x34
  18c83c:	e58d6038 	str	r6, [sp, #56]	; 0x38
  18c840:	ebfff712 	bl	18a490 <sub_FF82F91C>
  18c844:	e1a02009 	mov	r2, r9
  18c848:	e1a01005 	mov	r1, r5
  18c84c:	e1a00008 	mov	r0, r8
  18c850:	ebffff0e 	bl	18c490 <fwt_open>

0018c854 <loc_FFAB8AA4>:
  18c854:	e3700001 	cmn	r0, #1
  18c858:	e1a05000 	mov	r5, r0
  18c85c:	e5870004 	str	r0, [r7, #4]
  18c860:	1a00000d 	bne	18c89c <loc_FFAB8AEC>
  18c864:	e3a01000 	mov	r1, #0
  18c868:	e3a00048 	mov	r0, #72	; 0x48
  18c86c:	ebfff741 	bl	18a578 <sub_FF8B0664>
  18c870:	e2840058 	add	r0, r4, #88	; 0x58
  18c874:	ebfff708 	bl	18a49c <sub_FF83222C>
  18c878:	e597101c 	ldr	r1, [r7, #28]
  18c87c:	ebfff705 	bl	18a498 <sub_FF8300F8>
  18c880:	e5971014 	ldr	r1, [r7, #20]
  18c884:	e3510000 	cmp	r1, #0
  18c888:	0a000021 	beq	18c914 <loc_FFAB8B54>
  18c88c:	e28dd03c 	add	sp, sp, #60	; 0x3c
  18c890:	e8bd43f0 	pop	{r4, r5, r6, r7, r8, r9, lr}
  18c894:	e59f018c 	ldr	r0, [pc, #396]	; 18ca28 <loc_FFAB91E0+0x2c>
  18c898:	e12fff11 	bx	r1

0018c89c <loc_FFAB8AEC>:
  18c89c:	e59f016c 	ldr	r0, [pc, #364]	; 18ca10 <loc_FFAB91E0+0x14>
  18c8a0:	e3a02020 	mov	r2, #32
  18c8a4:	e2841058 	add	r1, r4, #88	; 0x58
  18c8a8:	ebfff6d0 	bl	18a3f0 <sub_006BAA10>
  18c8ac:	e59f3178 	ldr	r3, [pc, #376]	; 18ca2c <loc_FFAB91E0+0x30>
  18c8b0:	e5933000 	ldr	r3, [r3]
  18c8b4:	e3530000 	cmp	r3, #0
  18c8b8:	1a00000b 	bne	18c8ec <loc_C>
  18c8bc:	e594004c 	ldr	r0, [r4, #76]	; 0x4c
  18c8c0:	e3100080 	tst	r0, #128	; 0x80
  18c8c4:	0a000008 	beq	18c8ec <loc_C>
  18c8c8:	e5941008 	ldr	r1, [r4, #8]
  18c8cc:	e1a00005 	mov	r0, r5
  18c8d0:	ebfff6d5 	bl	18a42c <sub_FF827E74>
  18c8d4:	e3500000 	cmp	r0, #0
  18c8d8:	059f0150 	ldreq	r0, [pc, #336]	; 18ca30 <loc_FFAB91E0+0x34>
  18c8dc:	01a01004 	moveq	r1, r4
  18c8e0:	05840010 	streq	r0, [r4, #16]
  18c8e4:	03a00007 	moveq	r0, #7
  18c8e8:	0a000008 	beq	18c910 <loc_FFAB8B50>

0018c8ec <loc_C>:
  18c8ec:	e594004c 	ldr	r0, [r4, #76]	; 0x4c
  18c8f0:	e3100040 	tst	r0, #64	; 0x40
  18c8f4:	05940004 	ldreq	r0, [r4, #4]
  18c8f8:	03500000 	cmpeq	r0, #0
  18c8fc:	11a01004 	movne	r1, r4
  18c900:	13a00009 	movne	r0, #9
  18c904:	1bfff76e 	blne	18a6c4 <sub_FFAB88E4>
  18c908:	e1a01004 	mov	r1, r4
  18c90c:	e3a00000 	mov	r0, #0

0018c910 <loc_FFAB8B50>:
  18c910:	ebfff76b 	bl	18a6c4 <sub_FFAB88E4>

0018c914 <loc_FFAB8B54>:
  18c914:	e28dd03c 	add	sp, sp, #60	; 0x3c
  18c918:	e8bd83f0 	pop	{r4, r5, r6, r7, r8, r9, pc}

0018c91c <sub_FFAB9100_my>:
  18c91c:	e92d47f0 	push	{r4, r5, r6, r7, r8, r9, sl, lr}
  18c920:	e1a05000 	mov	r5, r0
  18c924:	e5900000 	ldr	r0, [r0]
  18c928:	e3500006 	cmp	r0, #6
  18c92c:	8a000005 	bhi	18c948 <loc_FFAB912C>
  18c930:	e0850180 	add	r0, r5, r0, lsl #3
  18c934:	e5b08014 	ldr	r8, [r0, #20]!
  18c938:	e5907004 	ldr	r7, [r0, #4]
  18c93c:	e3570000 	cmp	r7, #0
  18c940:	1a000007 	bne	18c964 <loc_FFAB9148>
  18c944:	ea000003 	b	18c958 <loc_FFAB913C>

0018c948 <loc_FFAB912C>:
  18c948:	e59f20e4 	ldr	r2, [pc, #228]	; 18ca34 <loc_FFAB91E0+0x38>
  18c94c:	e59f10b8 	ldr	r1, [pc, #184]	; 18ca0c <loc_FFAB91E0+0x10>
  18c950:	e3a00000 	mov	r0, #0
  18c954:	ebfff825 	bl	18a9f0 <_DebugAssert>

0018c958 <loc_FFAB913C>:
  18c958:	e1a01005 	mov	r1, r5
  18c95c:	e3a00007 	mov	r0, #7
  18c960:	ea000025 	b	18c9fc <loc_FFAB91E0>

0018c964 <loc_FFAB9148>:
  18c964:	e59f9098 	ldr	r9, [pc, #152]	; 18ca04 <loc_FFAB91E0+0x8>
  18c968:	e1a04007 	mov	r4, r7

0018c96c <loc_FFAB9150>:
  18c96c:	e5950004 	ldr	r0, [r5, #4]
  18c970:	e3540401 	cmp	r4, #16777216	; 0x1000000
  18c974:	91a06004 	movls	r6, r4
  18c978:	83a06401 	movhi	r6, #16777216	; 0x1000000
  18c97c:	e3c014ff 	bic	r1, r0, #-16777216	; 0xff000000
  18c980:	e3510000 	cmp	r1, #0
  18c984:	13c004ff 	bicne	r0, r0, #-16777216	; 0xff000000
  18c988:	12600401 	rsbne	r0, r0, #16777216	; 0x1000000
  18c98c:	11560000 	cmpne	r6, r0
  18c990:	81a06000 	movhi	r6, r0
  18c994:	e5990004 	ldr	r0, [r9, #4]
  18c998:	e1a02006 	mov	r2, r6
  18c99c:	e1a01008 	mov	r1, r8
  18c9a0:	ebfffec5 	bl	18c4bc <fwt_write>
  18c9a4:	e5951004 	ldr	r1, [r5, #4]
  18c9a8:	e1560000 	cmp	r6, r0
  18c9ac:	e0811000 	add	r1, r1, r0
  18c9b0:	e5851004 	str	r1, [r5, #4]
  18c9b4:	0a000004 	beq	18c9cc <loc_FFAB91B0>
  18c9b8:	e3700001 	cmn	r0, #1
  18c9bc:	159f0074 	ldrne	r0, [pc, #116]	; 18ca38 <loc_FFAB91E0+0x3c>
  18c9c0:	059f0074 	ldreq	r0, [pc, #116]	; 18ca3c <loc_FFAB91E0+0x40>
  18c9c4:	e5850010 	str	r0, [r5, #16]
  18c9c8:	eaffffe2 	b	18c958 <loc_FFAB913C>

0018c9cc <loc_FFAB91B0>:
  18c9cc:	e0444000 	sub	r4, r4, r0
  18c9d0:	e1540007 	cmp	r4, r7
  18c9d4:	259f2064 	ldrcs	r2, [pc, #100]	; 18ca40 <loc_FFAB91E0+0x44>
  18c9d8:	e0888000 	add	r8, r8, r0
  18c9dc:	259f1028 	ldrcs	r1, [pc, #40]	; 18ca0c <loc_FFAB91E0+0x10>
  18c9e0:	23a00000 	movcs	r0, #0
  18c9e4:	2bfff801 	blcs	18a9f0 <_DebugAssert>
  18c9e8:	e3540000 	cmp	r4, #0
  18c9ec:	1affffde 	bne	18c96c <loc_FFAB9150>
  18c9f0:	e5950000 	ldr	r0, [r5]
  18c9f4:	e1a01005 	mov	r1, r5
  18c9f8:	e2800001 	add	r0, r0, #1

0018c9fc <loc_FFAB91E0>:
  18c9fc:	e8bd47f0 	pop	{r4, r5, r6, r7, r8, r9, sl, lr}
  18ca00:	eafff72f 	b	18a6c4 <sub_FFAB88E4>
  18ca04:	0000b584 	.word	0x0000b584
  18ca08:	00000409 	.word	0x00000409
  18ca0c:	ffab8ee4 	.word	0xffab8ee4
  18ca10:	000fc03c 	.word	0x000fc03c
  18ca14:	001a9d7c 	.word	0x001a9d7c
  18ca18:	09200013 	.word	0x09200013
  18ca1c:	00000301 	.word	0x00000301
  18ca20:	000001b6 	.word	0x000001b6
  18ca24:	000041ff 	.word	0x000041ff
  18ca28:	09200001 	.word	0x09200001
  18ca2c:	001a9d84 	.word	0x001a9d84
  18ca30:	09200017 	.word	0x09200017
  18ca34:	0000035e 	.word	0x0000035e
  18ca38:	09200015 	.word	0x09200015
  18ca3c:	09200005 	.word	0x09200005
  18ca40:	00000389 	.word	0x00000389

0018ca44 <sub_FFAB8B5C_my>:
  18ca44:	e92d4070 	push	{r4, r5, r6, lr}
  18ca48:	e1a04000 	mov	r4, r0
  18ca4c:	e590004c 	ldr	r0, [r0, #76]	; 0x4c
  18ca50:	e59f5044 	ldr	r5, [pc, #68]	; 18ca9c <loc_D+0x8>
  18ca54:	e3100002 	tst	r0, #2
  18ca58:	e24dd038 	sub	sp, sp, #56	; 0x38
  18ca5c:	0afff71b 	beq	18a6d0 <sub_FFAB8CD0>
  18ca60:	e5950004 	ldr	r0, [r5, #4]
  18ca64:	e3700001 	cmn	r0, #1
  18ca68:	0afff717 	beq	18a6cc <sub_FFAB8BB0>
  18ca6c:	e5941054 	ldr	r1, [r4, #84]	; 0x54
  18ca70:	e59f6028 	ldr	r6, [pc, #40]	; 18caa0 <loc_D+0xc>
  18ca74:	e3510001 	cmp	r1, #1
  18ca78:	1a000005 	bne	18ca94 <loc_D>
  18ca7c:	e59f3020 	ldr	r3, [pc, #32]	; 18caa4 <loc_D+0x10>
  18ca80:	e5933000 	ldr	r3, [r3]
  18ca84:	e3530000 	cmp	r3, #0
  18ca88:	1a000001 	bne	18ca94 <loc_D>
  18ca8c:	ebfff665 	bl	18a428 <sub_FF827BC8>
  18ca90:	eafff70c 	b	18a6c8 <sub_FFAB8BA0>

0018ca94 <loc_D>:
  18ca94:	ebfffea3 	bl	18c528 <fwt_close>
  18ca98:	e59ff008 	ldr	pc, [pc, #8]	; 18caa8 <loc_D+0x14>
  18ca9c:	0000b584 	.word	0x0000b584
  18caa0:	09200003 	.word	0x09200003
  18caa4:	001a9d84 	.word	0x001a9d84
  18caa8:	ffab8ba0 	.word	0xffab8ba0

0018caac <schedule_memdump>:
  18caac:	b500      	push	{lr}
  18caae:	f013 f977 	bl	19fda0 <__get_tick_count_from_thumb>
  18cab2:	4b04      	ldr	r3, [pc, #16]	; (18cac4 <schedule_memdump+0x18>)
  18cab4:	6819      	ldr	r1, [r3, #0]
  18cab6:	22fa      	movs	r2, #250	; 0xfa
  18cab8:	0092      	lsls	r2, r2, #2
  18caba:	434a      	muls	r2, r1
  18cabc:	1880      	adds	r0, r0, r2
  18cabe:	6058      	str	r0, [r3, #4]
  18cac0:	bc01      	pop	{r0}
  18cac2:	4700      	bx	r0
  18cac4:	001a9d88 	.word	0x001a9d88

0018cac8 <dump_memory>:
  18cac8:	b571      	push	{r0, r4, r5, r6, lr}
  18caca:	4b36      	ldr	r3, [pc, #216]	; (18cba4 <dump_memory+0xdc>)
  18cacc:	2180      	movs	r1, #128	; 0x80
  18cace:	0109      	lsls	r1, r1, #4
  18cad0:	5858      	ldr	r0, [r3, r1]
  18cad2:	4a35      	ldr	r2, [pc, #212]	; (18cba8 <dump_memory+0xe0>)
  18cad4:	2800      	cmp	r0, #0
  18cad6:	d102      	bne.n	18cade <dump_memory+0x16>
  18cad8:	6d90      	ldr	r0, [r2, #88]	; 0x58
  18cada:	3001      	adds	r0, #1
  18cadc:	5058      	str	r0, [r3, r1]
  18cade:	6d90      	ldr	r0, [r2, #88]	; 0x58
  18cae0:	4e32      	ldr	r6, [pc, #200]	; (18cbac <dump_memory+0xe4>)
  18cae2:	599a      	ldr	r2, [r3, r6]
  18cae4:	4282      	cmp	r2, r0
  18cae6:	d901      	bls.n	18caec <dump_memory+0x24>
  18cae8:	2200      	movs	r2, #0
  18caea:	519a      	str	r2, [r3, r6]
  18caec:	4b2d      	ldr	r3, [pc, #180]	; (18cba4 <dump_memory+0xdc>)
  18caee:	5999      	ldr	r1, [r3, r6]
  18caf0:	3001      	adds	r0, #1
  18caf2:	2280      	movs	r2, #128	; 0x80
  18caf4:	0112      	lsls	r2, r2, #4
  18caf6:	589c      	ldr	r4, [r3, r2]
  18caf8:	190c      	adds	r4, r1, r4
  18cafa:	4284      	cmp	r4, r0
  18cafc:	d901      	bls.n	18cb02 <dump_memory+0x3a>
  18cafe:	1a41      	subs	r1, r0, r1
  18cb00:	5099      	str	r1, [r3, r2]
  18cb02:	2001      	movs	r0, #1
  18cb04:	f012 ff78 	bl	19f9f8 <__debug_led_from_thumb>
  18cb08:	f007 fe7a 	bl	194800 <is_video_recording>
  18cb0c:	2800      	cmp	r0, #0
  18cb0e:	d142      	bne.n	18cb96 <dump_memory+0xce>
  18cb10:	4827      	ldr	r0, [pc, #156]	; (18cbb0 <dump_memory+0xe8>)
  18cb12:	f013 f84d 	bl	19fbb0 <__mkdir_from_thumb>
  18cb16:	4827      	ldr	r0, [pc, #156]	; (18cbb4 <dump_memory+0xec>)
  18cb18:	f013 f84a 	bl	19fbb0 <__mkdir_from_thumb>
  18cb1c:	4c26      	ldr	r4, [pc, #152]	; (18cbb8 <dump_memory+0xf0>)
  18cb1e:	4d27      	ldr	r5, [pc, #156]	; (18cbbc <dump_memory+0xf4>)
  18cb20:	3508      	adds	r5, #8
  18cb22:	6822      	ldr	r2, [r4, #0]
  18cb24:	1c53      	adds	r3, r2, #1
  18cb26:	6023      	str	r3, [r4, #0]
  18cb28:	1c28      	adds	r0, r5, #0
  18cb2a:	4925      	ldr	r1, [pc, #148]	; (18cbc0 <dump_memory+0xf8>)
  18cb2c:	f012 ff88 	bl	19fa40 <__sprintf_from_thumb>
  18cb30:	1c28      	adds	r0, r5, #0
  18cb32:	2100      	movs	r1, #0
  18cb34:	f013 f93c 	bl	19fdb0 <__stat_from_thumb>
  18cb38:	2800      	cmp	r0, #0
  18cb3a:	d007      	beq.n	18cb4c <dump_memory+0x84>
  18cb3c:	1c28      	adds	r0, r5, #0
  18cb3e:	4921      	ldr	r1, [pc, #132]	; (18cbc4 <dump_memory+0xfc>)
  18cb40:	4a21      	ldr	r2, [pc, #132]	; (18cbc8 <dump_memory+0x100>)
  18cb42:	f013 f951 	bl	19fde8 <__open_from_thumb>
  18cb46:	1e04      	subs	r4, r0, #0
  18cb48:	da05      	bge.n	18cb56 <dump_memory+0x8e>
  18cb4a:	e022      	b.n	18cb92 <dump_memory+0xca>
  18cb4c:	6822      	ldr	r2, [r4, #0]
  18cb4e:	4b1f      	ldr	r3, [pc, #124]	; (18cbcc <dump_memory+0x104>)
  18cb50:	429a      	cmp	r2, r3
  18cb52:	dde6      	ble.n	18cb22 <dump_memory+0x5a>
  18cb54:	e01d      	b.n	18cb92 <dump_memory+0xca>
  18cb56:	4d13      	ldr	r5, [pc, #76]	; (18cba4 <dump_memory+0xdc>)
  18cb58:	59a9      	ldr	r1, [r5, r6]
  18cb5a:	2380      	movs	r3, #128	; 0x80
  18cb5c:	2900      	cmp	r1, #0
  18cb5e:	d110      	bne.n	18cb82 <dump_memory+0xba>
  18cb60:	05db      	lsls	r3, r3, #23
  18cb62:	681b      	ldr	r3, [r3, #0]
  18cb64:	9300      	str	r3, [sp, #0]
  18cb66:	1c20      	adds	r0, r4, #0
  18cb68:	4669      	mov	r1, sp
  18cb6a:	2204      	movs	r2, #4
  18cb6c:	f013 f834 	bl	19fbd8 <__write_from_thumb>
  18cb70:	2380      	movs	r3, #128	; 0x80
  18cb72:	011b      	lsls	r3, r3, #4
  18cb74:	58ea      	ldr	r2, [r5, r3]
  18cb76:	2a04      	cmp	r2, #4
  18cb78:	dd08      	ble.n	18cb8c <dump_memory+0xc4>
  18cb7a:	3a04      	subs	r2, #4
  18cb7c:	1c20      	adds	r0, r4, #0
  18cb7e:	2104      	movs	r1, #4
  18cb80:	e002      	b.n	18cb88 <dump_memory+0xc0>
  18cb82:	011b      	lsls	r3, r3, #4
  18cb84:	58ea      	ldr	r2, [r5, r3]
  18cb86:	1c20      	adds	r0, r4, #0
  18cb88:	f013 f826 	bl	19fbd8 <__write_from_thumb>
  18cb8c:	1c20      	adds	r0, r4, #0
  18cb8e:	f013 f8fb 	bl	19fd88 <__close_from_thumb>
  18cb92:	f013 f859 	bl	19fc48 <__vid_bitmap_refresh_from_thumb>
  18cb96:	2000      	movs	r0, #0
  18cb98:	f012 ff2e 	bl	19f9f8 <__debug_led_from_thumb>
  18cb9c:	bc71      	pop	{r0, r4, r5, r6}
  18cb9e:	bc01      	pop	{r0}
  18cba0:	4700      	bx	r0
  18cba2:	46c0      	nop			; (mov r8, r8)
  18cba4:	001aaef0 	.word	0x001aaef0
  18cba8:	001a70cc 	.word	0x001a70cc
  18cbac:	000007fc 	.word	0x000007fc
  18cbb0:	0019ffd8 	.word	0x0019ffd8
  18cbb4:	0019ffdf 	.word	0x0019ffdf
  18cbb8:	001a4400 	.word	0x001a4400
  18cbbc:	001a9d88 	.word	0x001a9d88
  18cbc0:	0019ffef 	.word	0x0019ffef
  18cbc4:	00000101 	.word	0x00000101
  18cbc8:	000001ff 	.word	0x000001ff
  18cbcc:	0000270e 	.word	0x0000270e

0018cbd0 <core_get_free_memory>:
  18cbd0:	b500      	push	{lr}
  18cbd2:	b089      	sub	sp, #36	; 0x24
  18cbd4:	4668      	mov	r0, sp
  18cbd6:	f001 f8df 	bl	18dd98 <GetCombinedMemInfo>
  18cbda:	9807      	ldr	r0, [sp, #28]
  18cbdc:	b009      	add	sp, #36	; 0x24
  18cbde:	bc02      	pop	{r1}
  18cbe0:	4708      	bx	r1

0018cbe2 <core_rawdata_available>:
  18cbe2:	2201      	movs	r2, #1
  18cbe4:	4b01      	ldr	r3, [pc, #4]	; (18cbec <core_rawdata_available+0xa>)
  18cbe6:	629a      	str	r2, [r3, #40]	; 0x28
  18cbe8:	4770      	bx	lr
  18cbea:	46c0      	nop			; (mov r8, r8)
  18cbec:	001a9d88 	.word	0x001a9d88

0018cbf0 <core_spytask_can_start>:
  18cbf0:	2201      	movs	r2, #1
  18cbf2:	4b01      	ldr	r3, [pc, #4]	; (18cbf8 <core_spytask_can_start+0x8>)
  18cbf4:	62da      	str	r2, [r3, #44]	; 0x2c
  18cbf6:	4770      	bx	lr
  18cbf8:	001a9d88 	.word	0x001a9d88

0018cbfc <script_autostart>:
  18cbfc:	b500      	push	{lr}
  18cbfe:	f002 ff47 	bl	18fa90 <enter_alt>
  18cc02:	f002 feb1 	bl	18f968 <gui_activate_alt_mode>
  18cc06:	2001      	movs	r0, #1
  18cc08:	f00e f8de 	bl	19adc8 <script_start_gui>
  18cc0c:	bc01      	pop	{r0}
  18cc0e:	4700      	bx	r0

0018cc10 <core_spytask>:
  18cc10:	b5f0      	push	{r4, r5, r6, r7, lr}
  18cc12:	b085      	sub	sp, #20
  18cc14:	487c      	ldr	r0, [pc, #496]	; (18ce08 <core_spytask+0x1f8>)
  18cc16:	497d      	ldr	r1, [pc, #500]	; (18ce0c <core_spytask+0x1fc>)
  18cc18:	4a7d      	ldr	r2, [pc, #500]	; (18ce10 <core_spytask+0x200>)
  18cc1a:	f00f fc7c 	bl	19c516 <parse_version>
  18cc1e:	f008 f83b 	bl	194c98 <camera_info_init>
  18cc22:	4d7c      	ldr	r5, [pc, #496]	; (18ce14 <core_spytask+0x204>)
  18cc24:	2300      	movs	r3, #0
  18cc26:	62eb      	str	r3, [r5, #44]	; 0x2c
  18cc28:	f001 f8a2 	bl	18dd70 <aram_malloc_init>
  18cc2c:	f001 f88e 	bl	18dd4c <exmem_malloc_init>
  18cc30:	f00d f8f8 	bl	199e24 <init_chdk_ptp_task>
  18cc34:	4c78      	ldr	r4, [pc, #480]	; (18ce18 <core_spytask+0x208>)
  18cc36:	e002      	b.n	18cc3e <core_spytask+0x2e>
  18cc38:	200a      	movs	r0, #10
  18cc3a:	f013 f91d 	bl	19fe78 <__msleep_from_thumb>
  18cc3e:	3c01      	subs	r4, #1
  18cc40:	2c00      	cmp	r4, #0
  18cc42:	d002      	beq.n	18cc4a <core_spytask+0x3a>
  18cc44:	6aeb      	ldr	r3, [r5, #44]	; 0x2c
  18cc46:	2b00      	cmp	r3, #0
  18cc48:	d0f6      	beq.n	18cc38 <core_spytask+0x28>
  18cc4a:	2001      	movs	r0, #1
  18cc4c:	f012 fed4 	bl	19f9f8 <__debug_led_from_thumb>
  18cc50:	2032      	movs	r0, #50	; 0x32
  18cc52:	f013 f911 	bl	19fe78 <__msleep_from_thumb>
  18cc56:	2000      	movs	r0, #0
  18cc58:	f012 fece 	bl	19f9f8 <__debug_led_from_thumb>
  18cc5c:	f003 fdc4 	bl	1907e8 <conf_restore>
  18cc60:	f002 fd06 	bl	18f670 <gui_init>
  18cc64:	4c6d      	ldr	r4, [pc, #436]	; (18ce1c <core_spytask+0x20c>)
  18cc66:	1c25      	adds	r5, r4, #0
  18cc68:	3534      	adds	r5, #52	; 0x34
  18cc6a:	e002      	b.n	18cc72 <core_spytask+0x62>
  18cc6c:	cc01      	ldmia	r4!, {r0}
  18cc6e:	f012 ff17 	bl	19faa0 <__mkdir_if_not_exist_from_thumb>
  18cc72:	42ac      	cmp	r4, r5
  18cc74:	d1fa      	bne.n	18cc6c <core_spytask+0x5c>
  18cc76:	486a      	ldr	r0, [pc, #424]	; (18ce20 <core_spytask+0x210>)
  18cc78:	2100      	movs	r1, #0
  18cc7a:	f013 f899 	bl	19fdb0 <__stat_from_thumb>
  18cc7e:	1e43      	subs	r3, r0, #1
  18cc80:	4198      	sbcs	r0, r3
  18cc82:	4b68      	ldr	r3, [pc, #416]	; (18ce24 <core_spytask+0x214>)
  18cc84:	6018      	str	r0, [r3, #0]
  18cc86:	2000      	movs	r0, #0
  18cc88:	f012 ff6e 	bl	19fb68 <__time_from_thumb>
  18cc8c:	1c06      	adds	r6, r0, #0
  18cc8e:	4d66      	ldr	r5, [pc, #408]	; (18ce28 <core_spytask+0x218>)
  18cc90:	e000      	b.n	18cc94 <core_spytask+0x84>
  18cc92:	1c26      	adds	r6, r4, #0
  18cc94:	f013 f884 	bl	19fda0 <__get_tick_count_from_thumb>
  18cc98:	67a8      	str	r0, [r5, #120]	; 0x78
  18cc9a:	2000      	movs	r0, #0
  18cc9c:	f012 ff64 	bl	19fb68 <__time_from_thumb>
  18cca0:	1c04      	adds	r4, r0, #0
  18cca2:	200a      	movs	r0, #10
  18cca4:	f013 f8e8 	bl	19fe78 <__msleep_from_thumb>
  18cca8:	42a6      	cmp	r6, r4
  18ccaa:	d1f2      	bne.n	18cc92 <core_spytask+0x82>
  18ccac:	6fa8      	ldr	r0, [r5, #120]	; 0x78
  18ccae:	21fa      	movs	r1, #250	; 0xfa
  18ccb0:	0089      	lsls	r1, r1, #2
  18ccb2:	f012 ff45 	bl	19fb40 <____modsi3_from_thumb>
  18ccb6:	67a8      	str	r0, [r5, #120]	; 0x78
  18ccb8:	4a5c      	ldr	r2, [pc, #368]	; (18ce2c <core_spytask+0x21c>)
  18ccba:	4b5d      	ldr	r3, [pc, #372]	; (18ce30 <core_spytask+0x220>)
  18ccbc:	58d1      	ldr	r1, [r2, r3]
  18ccbe:	2901      	cmp	r1, #1
  18ccc0:	d005      	beq.n	18ccce <core_spytask+0xbe>
  18ccc2:	2902      	cmp	r1, #2
  18ccc4:	d105      	bne.n	18ccd2 <core_spytask+0xc2>
  18ccc6:	2100      	movs	r1, #0
  18ccc8:	50d1      	str	r1, [r2, r3]
  18ccca:	f003 fc71 	bl	1905b0 <conf_save>
  18ccce:	f7ff ff95 	bl	18cbfc <script_autostart>
  18ccd2:	f006 fefb 	bl	193acc <shooting_init>
  18ccd6:	2601      	movs	r6, #1
  18ccd8:	4f53      	ldr	r7, [pc, #332]	; (18ce28 <core_spytask+0x218>)
  18ccda:	1c3d      	adds	r5, r7, #0
  18ccdc:	35f4      	adds	r5, #244	; 0xf4
  18ccde:	f007 fe0d 	bl	1948fc <mode_get>
  18cce2:	f000 ff81 	bl	18dbe8 <set_palette>
  18cce6:	4c4b      	ldr	r4, [pc, #300]	; (18ce14 <core_spytask+0x204>)
  18cce8:	6863      	ldr	r3, [r4, #4]
  18ccea:	2b00      	cmp	r3, #0
  18ccec:	d008      	beq.n	18cd00 <core_spytask+0xf0>
  18ccee:	f013 f857 	bl	19fda0 <__get_tick_count_from_thumb>
  18ccf2:	6863      	ldr	r3, [r4, #4]
  18ccf4:	4298      	cmp	r0, r3
  18ccf6:	d303      	bcc.n	18cd00 <core_spytask+0xf0>
  18ccf8:	2300      	movs	r3, #0
  18ccfa:	6063      	str	r3, [r4, #4]
  18ccfc:	f7ff fee4 	bl	18cac8 <dump_memory>
  18cd00:	f002 fe32 	bl	18f968 <gui_activate_alt_mode>
  18cd04:	f012 fed4 	bl	19fab0 <__load_chdk_palette_from_thumb>
  18cd08:	6aa3      	ldr	r3, [r4, #40]	; 0x28
  18cd0a:	2b00      	cmp	r3, #0
  18cd0c:	d006      	beq.n	18cd1c <core_spytask+0x10c>
  18cd0e:	f006 f851 	bl	192db4 <raw_process>
  18cd12:	f012 ff79 	bl	19fc08 <__hook_raw_save_complete_from_thumb>
  18cd16:	2300      	movs	r3, #0
  18cd18:	62a3      	str	r3, [r4, #40]	; 0x28
  18cd1a:	e7e0      	b.n	18ccde <core_spytask+0xce>
  18cd1c:	682b      	ldr	r3, [r5, #0]
  18cd1e:	2b02      	cmp	r3, #2
  18cd20:	d103      	bne.n	18cd2a <core_spytask+0x11a>
  18cd22:	4b44      	ldr	r3, [pc, #272]	; (18ce34 <core_spytask+0x224>)
  18cd24:	681b      	ldr	r3, [r3, #0]
  18cd26:	2b00      	cmp	r3, #0
  18cd28:	d006      	beq.n	18cd38 <core_spytask+0x128>
  18cd2a:	2303      	movs	r3, #3
  18cd2c:	4033      	ands	r3, r6
  18cd2e:	3601      	adds	r6, #1
  18cd30:	2b00      	cmp	r3, #0
  18cd32:	d101      	bne.n	18cd38 <core_spytask+0x128>
  18cd34:	f002 fdae 	bl	18f894 <gui_redraw>
  18cd38:	1c3b      	adds	r3, r7, #0
  18cd3a:	33f4      	adds	r3, #244	; 0xf4
  18cd3c:	681b      	ldr	r3, [r3, #0]
  18cd3e:	2b02      	cmp	r3, #2
  18cd40:	d023      	beq.n	18cd8a <core_spytask+0x17a>
  18cd42:	4c3a      	ldr	r4, [pc, #232]	; (18ce2c <core_spytask+0x21c>)
  18cd44:	6f23      	ldr	r3, [r4, #112]	; 0x70
  18cd46:	2b00      	cmp	r3, #0
  18cd48:	d004      	beq.n	18cd54 <core_spytask+0x144>
  18cd4a:	4b3b      	ldr	r3, [pc, #236]	; (18ce38 <core_spytask+0x228>)
  18cd4c:	681b      	ldr	r3, [r3, #0]
  18cd4e:	695b      	ldr	r3, [r3, #20]
  18cd50:	f000 f87f 	bl	18ce52 <ftell+0xe>
  18cd54:	4b34      	ldr	r3, [pc, #208]	; (18ce28 <core_spytask+0x218>)
  18cd56:	33fc      	adds	r3, #252	; 0xfc
  18cd58:	689a      	ldr	r2, [r3, #8]
  18cd5a:	2a00      	cmp	r2, #0
  18cd5c:	d102      	bne.n	18cd64 <core_spytask+0x154>
  18cd5e:	68db      	ldr	r3, [r3, #12]
  18cd60:	2b00      	cmp	r3, #0
  18cd62:	d012      	beq.n	18cd8a <core_spytask+0x17a>
  18cd64:	23de      	movs	r3, #222	; 0xde
  18cd66:	00db      	lsls	r3, r3, #3
  18cd68:	58e3      	ldr	r3, [r4, r3]
  18cd6a:	2b00      	cmp	r3, #0
  18cd6c:	d00d      	beq.n	18cd8a <core_spytask+0x17a>
  18cd6e:	23dd      	movs	r3, #221	; 0xdd
  18cd70:	00db      	lsls	r3, r3, #3
  18cd72:	58e3      	ldr	r3, [r4, r3]
  18cd74:	2b00      	cmp	r3, #0
  18cd76:	d008      	beq.n	18cd8a <core_spytask+0x17a>
  18cd78:	4b26      	ldr	r3, [pc, #152]	; (18ce14 <core_spytask+0x204>)
  18cd7a:	6b1b      	ldr	r3, [r3, #48]	; 0x30
  18cd7c:	2b00      	cmp	r3, #0
  18cd7e:	d004      	beq.n	18cd8a <core_spytask+0x17a>
  18cd80:	4b2e      	ldr	r3, [pc, #184]	; (18ce3c <core_spytask+0x22c>)
  18cd82:	681b      	ldr	r3, [r3, #0]
  18cd84:	695b      	ldr	r3, [r3, #20]
  18cd86:	f000 f864 	bl	18ce52 <ftell+0xe>
  18cd8a:	4b27      	ldr	r3, [pc, #156]	; (18ce28 <core_spytask+0x218>)
  18cd8c:	1c1c      	adds	r4, r3, #0
  18cd8e:	34f4      	adds	r4, #244	; 0xf4
  18cd90:	6822      	ldr	r2, [r4, #0]
  18cd92:	2a02      	cmp	r2, #2
  18cd94:	d105      	bne.n	18cda2 <core_spytask+0x192>
  18cd96:	f006 fa25 	bl	1931e4 <shooting_in_progress>
  18cd9a:	2800      	cmp	r0, #0
  18cd9c:	d101      	bne.n	18cda2 <core_spytask+0x192>
  18cd9e:	2303      	movs	r3, #3
  18cda0:	6023      	str	r3, [r4, #0]
  18cda2:	4b21      	ldr	r3, [pc, #132]	; (18ce28 <core_spytask+0x218>)
  18cda4:	33fc      	adds	r3, #252	; 0xfc
  18cda6:	6b1a      	ldr	r2, [r3, #48]	; 0x30
  18cda8:	2a00      	cmp	r2, #0
  18cdaa:	d023      	beq.n	18cdf4 <core_spytask+0x1e4>
  18cdac:	6bda      	ldr	r2, [r3, #60]	; 0x3c
  18cdae:	9202      	str	r2, [sp, #8]
  18cdb0:	6c1a      	ldr	r2, [r3, #64]	; 0x40
  18cdb2:	9203      	str	r2, [sp, #12]
  18cdb4:	6c5a      	ldr	r2, [r3, #68]	; 0x44
  18cdb6:	9204      	str	r2, [sp, #16]
  18cdb8:	6cd9      	ldr	r1, [r3, #76]	; 0x4c
  18cdba:	2900      	cmp	r1, #0
  18cdbc:	d003      	beq.n	18cdc6 <core_spytask+0x1b6>
  18cdbe:	6c98      	ldr	r0, [r3, #72]	; 0x48
  18cdc0:	f012 ff3a 	bl	19fc38 <____udivsi3_from_thumb>
  18cdc4:	1c01      	adds	r1, r0, #0
  18cdc6:	4c13      	ldr	r4, [pc, #76]	; (18ce14 <core_spytask+0x204>)
  18cdc8:	3434      	adds	r4, #52	; 0x34
  18cdca:	9b04      	ldr	r3, [sp, #16]
  18cdcc:	9300      	str	r3, [sp, #0]
  18cdce:	9101      	str	r1, [sp, #4]
  18cdd0:	1c20      	adds	r0, r4, #0
  18cdd2:	491b      	ldr	r1, [pc, #108]	; (18ce40 <core_spytask+0x230>)
  18cdd4:	9a02      	ldr	r2, [sp, #8]
  18cdd6:	9b03      	ldr	r3, [sp, #12]
  18cdd8:	f012 fe32 	bl	19fa40 <__sprintf_from_thumb>
  18cddc:	2389      	movs	r3, #137	; 0x89
  18cdde:	009b      	lsls	r3, r3, #2
  18cde0:	4a12      	ldr	r2, [pc, #72]	; (18ce2c <core_spytask+0x21c>)
  18cde2:	58d0      	ldr	r0, [r2, r3]
  18cde4:	f000 ff34 	bl	18dc50 <user_color>
  18cde8:	1c03      	adds	r3, r0, #0
  18cdea:	2001      	movs	r0, #1
  18cdec:	2100      	movs	r1, #0
  18cdee:	1c22      	adds	r2, r4, #0
  18cdf0:	f000 fd52 	bl	18d898 <draw_txt_string>
  18cdf4:	f00e fffc 	bl	19bdf0 <module_tick_unloader>
  18cdf8:	2014      	movs	r0, #20
  18cdfa:	f013 f83d 	bl	19fe78 <__msleep_from_thumb>
  18cdfe:	2201      	movs	r2, #1
  18ce00:	4b04      	ldr	r3, [pc, #16]	; (18ce14 <core_spytask+0x204>)
  18ce02:	631a      	str	r2, [r3, #48]	; 0x30
  18ce04:	e76b      	b.n	18ccde <core_spytask+0xce>
  18ce06:	46c0      	nop			; (mov r8, r8)
  18ce08:	001ab82c 	.word	0x001ab82c
  18ce0c:	001a10fe 	.word	0x001a10fe
  18ce10:	001a000c 	.word	0x001a000c
  18ce14:	001a9d88 	.word	0x001a9d88
  18ce18:	00000191 	.word	0x00000191
  18ce1c:	0019ffa4 	.word	0x0019ffa4
  18ce20:	001a0011 	.word	0x001a0011
  18ce24:	001aaed4 	.word	0x001aaed4
  18ce28:	001a70cc 	.word	0x001a70cc
  18ce2c:	001aaef0 	.word	0x001aaef0
  18ce30:	00000644 	.word	0x00000644
  18ce34:	000027e4 	.word	0x000027e4
  18ce38:	001a8df8 	.word	0x001a8df8
  18ce3c:	001a8e48 	.word	0x001a8e48
  18ce40:	001a002c 	.word	0x001a002c

0018ce44 <ftell>:
  18ce44:	2800      	cmp	r0, #0
  18ce46:	d001      	beq.n	18ce4c <ftell+0x8>
  18ce48:	68c0      	ldr	r0, [r0, #12]
  18ce4a:	e001      	b.n	18ce50 <ftell+0xc>
  18ce4c:	2001      	movs	r0, #1
  18ce4e:	4240      	negs	r0, r0
  18ce50:	4770      	bx	lr
  18ce52:	4718      	bx	r3

0018ce54 <draw_pixel_std>:
  18ce54:	4b03      	ldr	r3, [pc, #12]	; (18ce64 <draw_pixel_std+0x10>)
  18ce56:	681a      	ldr	r2, [r3, #0]
  18ce58:	0092      	lsls	r2, r2, #2
  18ce5a:	4b03      	ldr	r3, [pc, #12]	; (18ce68 <draw_pixel_std+0x14>)
  18ce5c:	58d3      	ldr	r3, [r2, r3]
  18ce5e:	5419      	strb	r1, [r3, r0]
  18ce60:	4770      	bx	lr
  18ce62:	46c0      	nop			; (mov r8, r8)
  18ce64:	00003a98 	.word	0x00003a98
  18ce68:	00003a9c 	.word	0x00003a9c

0018ce6c <draw_pixel_proc_rotated>:
  18ce6c:	b500      	push	{lr}
  18ce6e:	0609      	lsls	r1, r1, #24
  18ce70:	0e09      	lsrs	r1, r1, #24
  18ce72:	4b04      	ldr	r3, [pc, #16]	; (18ce84 <draw_pixel_proc_rotated+0x18>)
  18ce74:	681b      	ldr	r3, [r3, #0]
  18ce76:	1a18      	subs	r0, r3, r0
  18ce78:	4b03      	ldr	r3, [pc, #12]	; (18ce88 <draw_pixel_proc_rotated+0x1c>)
  18ce7a:	681b      	ldr	r3, [r3, #0]
  18ce7c:	f000 fef8 	bl	18dc70 <user_color+0x20>
  18ce80:	bc01      	pop	{r0}
  18ce82:	4700      	bx	r0
  18ce84:	001aaee0 	.word	0x001aaee0
  18ce88:	001aaedc 	.word	0x001aaedc

0018ce8c <get_cdata>:
  18ce8c:	b530      	push	{r4, r5, lr}
  18ce8e:	1c04      	adds	r4, r0, #0
  18ce90:	1c0d      	adds	r5, r1, #0
  18ce92:	0610      	lsls	r0, r2, #24
  18ce94:	0e00      	lsrs	r0, r0, #24
  18ce96:	f008 fb99 	bl	1955cc <get_current_font_data>
  18ce9a:	7803      	ldrb	r3, [r0, #0]
  18ce9c:	091b      	lsrs	r3, r3, #4
  18ce9e:	6023      	str	r3, [r4, #0]
  18cea0:	7802      	ldrb	r2, [r0, #0]
  18cea2:	230f      	movs	r3, #15
  18cea4:	4013      	ands	r3, r2
  18cea6:	2210      	movs	r2, #16
  18cea8:	1ad3      	subs	r3, r2, r3
  18ceaa:	602b      	str	r3, [r5, #0]
  18ceac:	6822      	ldr	r2, [r4, #0]
  18ceae:	4293      	cmp	r3, r2
  18ceb0:	d100      	bne.n	18ceb4 <get_cdata+0x28>
  18ceb2:	3404      	adds	r4, #4
  18ceb4:	6823      	ldr	r3, [r4, #0]
  18ceb6:	1ac0      	subs	r0, r0, r3
  18ceb8:	3001      	adds	r0, #1
  18ceba:	bc30      	pop	{r4, r5}
  18cebc:	bc02      	pop	{r1}
  18cebe:	4708      	bx	r1

0018cec0 <draw_set_draw_proc>:
  18cec0:	2800      	cmp	r0, #0
  18cec2:	d100      	bne.n	18cec6 <draw_set_draw_proc+0x6>
  18cec4:	480c      	ldr	r0, [pc, #48]	; (18cef8 <draw_set_draw_proc+0x38>)
  18cec6:	4b0d      	ldr	r3, [pc, #52]	; (18cefc <draw_set_draw_proc+0x3c>)
  18cec8:	6018      	str	r0, [r3, #0]
  18ceca:	4b0d      	ldr	r3, [pc, #52]	; (18cf00 <draw_set_draw_proc+0x40>)
  18cecc:	6e9b      	ldr	r3, [r3, #104]	; 0x68
  18cece:	2b00      	cmp	r3, #0
  18ced0:	d00e      	beq.n	18cef0 <draw_set_draw_proc+0x30>
  18ced2:	4b0c      	ldr	r3, [pc, #48]	; (18cf04 <draw_set_draw_proc+0x44>)
  18ced4:	685a      	ldr	r2, [r3, #4]
  18ced6:	3a01      	subs	r2, #1
  18ced8:	6919      	ldr	r1, [r3, #16]
  18ceda:	434a      	muls	r2, r1
  18cedc:	681b      	ldr	r3, [r3, #0]
  18cede:	005b      	lsls	r3, r3, #1
  18cee0:	18d2      	adds	r2, r2, r3
  18cee2:	3a01      	subs	r2, #1
  18cee4:	4b08      	ldr	r3, [pc, #32]	; (18cf08 <draw_set_draw_proc+0x48>)
  18cee6:	601a      	str	r2, [r3, #0]
  18cee8:	4a08      	ldr	r2, [pc, #32]	; (18cf0c <draw_set_draw_proc+0x4c>)
  18ceea:	4b09      	ldr	r3, [pc, #36]	; (18cf10 <draw_set_draw_proc+0x50>)
  18ceec:	601a      	str	r2, [r3, #0]
  18ceee:	e001      	b.n	18cef4 <draw_set_draw_proc+0x34>
  18cef0:	4b07      	ldr	r3, [pc, #28]	; (18cf10 <draw_set_draw_proc+0x50>)
  18cef2:	6018      	str	r0, [r3, #0]
  18cef4:	4770      	bx	lr
  18cef6:	46c0      	nop			; (mov r8, r8)
  18cef8:	0018ce55 	.word	0x0018ce55
  18cefc:	001aaedc 	.word	0x001aaedc
  18cf00:	001aaef0 	.word	0x001aaef0
  18cf04:	001a724c 	.word	0x001a724c
  18cf08:	001aaee0 	.word	0x001aaee0
  18cf0c:	0018ce6d 	.word	0x0018ce6d
  18cf10:	001aaed8 	.word	0x001aaed8

0018cf14 <update_draw_proc>:
  18cf14:	b500      	push	{lr}
  18cf16:	4b03      	ldr	r3, [pc, #12]	; (18cf24 <update_draw_proc+0x10>)
  18cf18:	6818      	ldr	r0, [r3, #0]
  18cf1a:	f7ff ffd1 	bl	18cec0 <draw_set_draw_proc>
  18cf1e:	bc01      	pop	{r0}
  18cf20:	4700      	bx	r0
  18cf22:	46c0      	nop			; (mov r8, r8)
  18cf24:	001aaedc 	.word	0x001aaedc

0018cf28 <draw_set_guard>:
  18cf28:	4a05      	ldr	r2, [pc, #20]	; (18cf40 <draw_set_guard+0x18>)
  18cf2a:	6811      	ldr	r1, [r2, #0]
  18cf2c:	4b05      	ldr	r3, [pc, #20]	; (18cf44 <draw_set_guard+0x1c>)
  18cf2e:	6818      	ldr	r0, [r3, #0]
  18cf30:	7b40      	ldrb	r0, [r0, #13]
  18cf32:	7008      	strb	r0, [r1, #0]
  18cf34:	6852      	ldr	r2, [r2, #4]
  18cf36:	681b      	ldr	r3, [r3, #0]
  18cf38:	7b5b      	ldrb	r3, [r3, #13]
  18cf3a:	7013      	strb	r3, [r2, #0]
  18cf3c:	4770      	bx	lr
  18cf3e:	46c0      	nop			; (mov r8, r8)
  18cf40:	00003a9c 	.word	0x00003a9c
  18cf44:	001a4404 	.word	0x001a4404

0018cf48 <draw_test_guard>:
  18cf48:	4b06      	ldr	r3, [pc, #24]	; (18cf64 <draw_test_guard+0x1c>)
  18cf4a:	681a      	ldr	r2, [r3, #0]
  18cf4c:	0092      	lsls	r2, r2, #2
  18cf4e:	4b06      	ldr	r3, [pc, #24]	; (18cf68 <draw_test_guard+0x20>)
  18cf50:	58d2      	ldr	r2, [r2, r3]
  18cf52:	4b06      	ldr	r3, [pc, #24]	; (18cf6c <draw_test_guard+0x24>)
  18cf54:	681b      	ldr	r3, [r3, #0]
  18cf56:	7810      	ldrb	r0, [r2, #0]
  18cf58:	7b5b      	ldrb	r3, [r3, #13]
  18cf5a:	1ac0      	subs	r0, r0, r3
  18cf5c:	4243      	negs	r3, r0
  18cf5e:	4158      	adcs	r0, r3
  18cf60:	4770      	bx	lr
  18cf62:	46c0      	nop			; (mov r8, r8)
  18cf64:	00003a98 	.word	0x00003a98
  18cf68:	00003a9c 	.word	0x00003a9c
  18cf6c:	001a4404 	.word	0x001a4404

0018cf70 <draw_init>:
  18cf70:	b500      	push	{lr}
  18cf72:	2000      	movs	r0, #0
  18cf74:	f7ff ffa4 	bl	18cec0 <draw_set_draw_proc>
  18cf78:	f7ff ffd6 	bl	18cf28 <draw_set_guard>
  18cf7c:	bc01      	pop	{r0}
  18cf7e:	4700      	bx	r0

0018cf80 <draw_restore>:
  18cf80:	b500      	push	{lr}
  18cf82:	f012 fe61 	bl	19fc48 <__vid_bitmap_refresh_from_thumb>
  18cf86:	f7ff ffcf 	bl	18cf28 <draw_set_guard>
  18cf8a:	bc01      	pop	{r0}
  18cf8c:	4700      	bx	r0

0018cf8e <draw_pixel>:
  18cf8e:	b570      	push	{r4, r5, r6, lr}
  18cf90:	0616      	lsls	r6, r2, #24
  18cf92:	0e36      	lsrs	r6, r6, #24
  18cf94:	2900      	cmp	r1, #0
  18cf96:	db1a      	blt.n	18cfce <draw_pixel+0x40>
  18cf98:	2800      	cmp	r0, #0
  18cf9a:	db18      	blt.n	18cfce <draw_pixel+0x40>
  18cf9c:	4b0d      	ldr	r3, [pc, #52]	; (18cfd4 <draw_pixel+0x46>)
  18cf9e:	681a      	ldr	r2, [r3, #0]
  18cfa0:	4290      	cmp	r0, r2
  18cfa2:	da14      	bge.n	18cfce <draw_pixel+0x40>
  18cfa4:	685a      	ldr	r2, [r3, #4]
  18cfa6:	4291      	cmp	r1, r2
  18cfa8:	da11      	bge.n	18cfce <draw_pixel+0x40>
  18cfaa:	1c0a      	adds	r2, r1, #0
  18cfac:	4302      	orrs	r2, r0
  18cfae:	d00e      	beq.n	18cfce <draw_pixel+0x40>
  18cfb0:	691c      	ldr	r4, [r3, #16]
  18cfb2:	434c      	muls	r4, r1
  18cfb4:	0040      	lsls	r0, r0, #1
  18cfb6:	1824      	adds	r4, r4, r0
  18cfb8:	4d07      	ldr	r5, [pc, #28]	; (18cfd8 <draw_pixel+0x4a>)
  18cfba:	682b      	ldr	r3, [r5, #0]
  18cfbc:	1c20      	adds	r0, r4, #0
  18cfbe:	1c31      	adds	r1, r6, #0
  18cfc0:	f000 fe56 	bl	18dc70 <user_color+0x20>
  18cfc4:	1c60      	adds	r0, r4, #1
  18cfc6:	682b      	ldr	r3, [r5, #0]
  18cfc8:	1c31      	adds	r1, r6, #0
  18cfca:	f000 fe51 	bl	18dc70 <user_color+0x20>
  18cfce:	bc70      	pop	{r4, r5, r6}
  18cfd0:	bc01      	pop	{r0}
  18cfd2:	4700      	bx	r0
  18cfd4:	001a724c 	.word	0x001a724c
  18cfd8:	001aaed8 	.word	0x001aaed8

0018cfdc <draw_pixel_unrotated>:
  18cfdc:	b570      	push	{r4, r5, r6, lr}
  18cfde:	0616      	lsls	r6, r2, #24
  18cfe0:	0e36      	lsrs	r6, r6, #24
  18cfe2:	2900      	cmp	r1, #0
  18cfe4:	db1a      	blt.n	18d01c <draw_pixel_unrotated+0x40>
  18cfe6:	2800      	cmp	r0, #0
  18cfe8:	db18      	blt.n	18d01c <draw_pixel_unrotated+0x40>
  18cfea:	4b0e      	ldr	r3, [pc, #56]	; (18d024 <draw_pixel_unrotated+0x48>)
  18cfec:	681a      	ldr	r2, [r3, #0]
  18cfee:	4290      	cmp	r0, r2
  18cff0:	da14      	bge.n	18d01c <draw_pixel_unrotated+0x40>
  18cff2:	685a      	ldr	r2, [r3, #4]
  18cff4:	4291      	cmp	r1, r2
  18cff6:	da11      	bge.n	18d01c <draw_pixel_unrotated+0x40>
  18cff8:	1c0a      	adds	r2, r1, #0
  18cffa:	4302      	orrs	r2, r0
  18cffc:	d00e      	beq.n	18d01c <draw_pixel_unrotated+0x40>
  18cffe:	691c      	ldr	r4, [r3, #16]
  18d000:	434c      	muls	r4, r1
  18d002:	0040      	lsls	r0, r0, #1
  18d004:	1824      	adds	r4, r4, r0
  18d006:	4d08      	ldr	r5, [pc, #32]	; (18d028 <draw_pixel_unrotated+0x4c>)
  18d008:	682b      	ldr	r3, [r5, #0]
  18d00a:	1c20      	adds	r0, r4, #0
  18d00c:	1c31      	adds	r1, r6, #0
  18d00e:	f000 fe2f 	bl	18dc70 <user_color+0x20>
  18d012:	1c60      	adds	r0, r4, #1
  18d014:	682b      	ldr	r3, [r5, #0]
  18d016:	1c31      	adds	r1, r6, #0
  18d018:	f000 fe2a 	bl	18dc70 <user_color+0x20>
  18d01c:	bc70      	pop	{r4, r5, r6}
  18d01e:	bc01      	pop	{r0}
  18d020:	4700      	bx	r0
  18d022:	46c0      	nop			; (mov r8, r8)
  18d024:	001a724c 	.word	0x001a724c
  18d028:	001aaedc 	.word	0x001aaedc

0018d02c <draw_get_pixel>:
  18d02c:	b510      	push	{r4, lr}
  18d02e:	1c03      	adds	r3, r0, #0
  18d030:	2900      	cmp	r1, #0
  18d032:	db1b      	blt.n	18d06c <draw_get_pixel+0x40>
  18d034:	0fc0      	lsrs	r0, r0, #31
  18d036:	d119      	bne.n	18d06c <draw_get_pixel+0x40>
  18d038:	4a0e      	ldr	r2, [pc, #56]	; (18d074 <draw_get_pixel+0x48>)
  18d03a:	6814      	ldr	r4, [r2, #0]
  18d03c:	42a3      	cmp	r3, r4
  18d03e:	da16      	bge.n	18d06e <draw_get_pixel+0x42>
  18d040:	6854      	ldr	r4, [r2, #4]
  18d042:	42a1      	cmp	r1, r4
  18d044:	da13      	bge.n	18d06e <draw_get_pixel+0x42>
  18d046:	480c      	ldr	r0, [pc, #48]	; (18d078 <draw_get_pixel+0x4c>)
  18d048:	6e84      	ldr	r4, [r0, #104]	; 0x68
  18d04a:	480c      	ldr	r0, [pc, #48]	; (18d07c <draw_get_pixel+0x50>)
  18d04c:	005b      	lsls	r3, r3, #1
  18d04e:	6912      	ldr	r2, [r2, #16]
  18d050:	4351      	muls	r1, r2
  18d052:	2c00      	cmp	r4, #0
  18d054:	d006      	beq.n	18d064 <draw_get_pixel+0x38>
  18d056:	4a0a      	ldr	r2, [pc, #40]	; (18d080 <draw_get_pixel+0x54>)
  18d058:	6812      	ldr	r2, [r2, #0]
  18d05a:	18cb      	adds	r3, r1, r3
  18d05c:	1ad3      	subs	r3, r2, r3
  18d05e:	6802      	ldr	r2, [r0, #0]
  18d060:	5cd0      	ldrb	r0, [r2, r3]
  18d062:	e004      	b.n	18d06e <draw_get_pixel+0x42>
  18d064:	6802      	ldr	r2, [r0, #0]
  18d066:	1851      	adds	r1, r2, r1
  18d068:	5cc8      	ldrb	r0, [r1, r3]
  18d06a:	e000      	b.n	18d06e <draw_get_pixel+0x42>
  18d06c:	2000      	movs	r0, #0
  18d06e:	bc10      	pop	{r4}
  18d070:	bc02      	pop	{r1}
  18d072:	4708      	bx	r1
  18d074:	001a724c 	.word	0x001a724c
  18d078:	001aaef0 	.word	0x001aaef0
  18d07c:	00003a9c 	.word	0x00003a9c
  18d080:	001aaee0 	.word	0x001aaee0

0018d084 <draw_get_pixel_unrotated>:
  18d084:	b510      	push	{r4, lr}
  18d086:	1c03      	adds	r3, r0, #0
  18d088:	2900      	cmp	r1, #0
  18d08a:	db10      	blt.n	18d0ae <draw_get_pixel_unrotated+0x2a>
  18d08c:	0fc0      	lsrs	r0, r0, #31
  18d08e:	d10e      	bne.n	18d0ae <draw_get_pixel_unrotated+0x2a>
  18d090:	4a09      	ldr	r2, [pc, #36]	; (18d0b8 <draw_get_pixel_unrotated+0x34>)
  18d092:	6814      	ldr	r4, [r2, #0]
  18d094:	42a3      	cmp	r3, r4
  18d096:	da0b      	bge.n	18d0b0 <draw_get_pixel_unrotated+0x2c>
  18d098:	6854      	ldr	r4, [r2, #4]
  18d09a:	42a1      	cmp	r1, r4
  18d09c:	da08      	bge.n	18d0b0 <draw_get_pixel_unrotated+0x2c>
  18d09e:	6912      	ldr	r2, [r2, #16]
  18d0a0:	4351      	muls	r1, r2
  18d0a2:	005b      	lsls	r3, r3, #1
  18d0a4:	4a05      	ldr	r2, [pc, #20]	; (18d0bc <draw_get_pixel_unrotated+0x38>)
  18d0a6:	6812      	ldr	r2, [r2, #0]
  18d0a8:	1851      	adds	r1, r2, r1
  18d0aa:	5cc8      	ldrb	r0, [r1, r3]
  18d0ac:	e000      	b.n	18d0b0 <draw_get_pixel_unrotated+0x2c>
  18d0ae:	2000      	movs	r0, #0
  18d0b0:	bc10      	pop	{r4}
  18d0b2:	bc02      	pop	{r1}
  18d0b4:	4708      	bx	r1
  18d0b6:	46c0      	nop			; (mov r8, r8)
  18d0b8:	001a724c 	.word	0x001a724c
  18d0bc:	00003a9c 	.word	0x00003a9c

0018d0c0 <draw_line>:
  18d0c0:	b5f0      	push	{r4, r5, r6, r7, lr}
  18d0c2:	b086      	sub	sp, #24
  18d0c4:	1c14      	adds	r4, r2, #0
  18d0c6:	9f0b      	ldr	r7, [sp, #44]	; 0x2c
  18d0c8:	063f      	lsls	r7, r7, #24
  18d0ca:	0e3f      	lsrs	r7, r7, #24
  18d0cc:	1a5d      	subs	r5, r3, r1
  18d0ce:	17ea      	asrs	r2, r5, #31
  18d0d0:	18ad      	adds	r5, r5, r2
  18d0d2:	4055      	eors	r5, r2
  18d0d4:	1a22      	subs	r2, r4, r0
  18d0d6:	17d6      	asrs	r6, r2, #31
  18d0d8:	1992      	adds	r2, r2, r6
  18d0da:	4072      	eors	r2, r6
  18d0dc:	4295      	cmp	r5, r2
  18d0de:	dd08      	ble.n	18d0f2 <draw_line+0x32>
  18d0e0:	2501      	movs	r5, #1
  18d0e2:	9500      	str	r5, [sp, #0]
  18d0e4:	4048      	eors	r0, r1
  18d0e6:	4041      	eors	r1, r0
  18d0e8:	4048      	eors	r0, r1
  18d0ea:	405c      	eors	r4, r3
  18d0ec:	4063      	eors	r3, r4
  18d0ee:	405c      	eors	r4, r3
  18d0f0:	e001      	b.n	18d0f6 <draw_line+0x36>
  18d0f2:	2600      	movs	r6, #0
  18d0f4:	9600      	str	r6, [sp, #0]
  18d0f6:	42a0      	cmp	r0, r4
  18d0f8:	dd05      	ble.n	18d106 <draw_line+0x46>
  18d0fa:	4060      	eors	r0, r4
  18d0fc:	4044      	eors	r4, r0
  18d0fe:	4060      	eors	r0, r4
  18d100:	4059      	eors	r1, r3
  18d102:	404b      	eors	r3, r1
  18d104:	4059      	eors	r1, r3
  18d106:	1a25      	subs	r5, r4, r0
  18d108:	9501      	str	r5, [sp, #4]
  18d10a:	1a5a      	subs	r2, r3, r1
  18d10c:	17d5      	asrs	r5, r2, #31
  18d10e:	1956      	adds	r6, r2, r5
  18d110:	406e      	eors	r6, r5
  18d112:	9605      	str	r6, [sp, #20]
  18d114:	17cd      	asrs	r5, r1, #31
  18d116:	0fda      	lsrs	r2, r3, #31
  18d118:	4299      	cmp	r1, r3
  18d11a:	416a      	adcs	r2, r5
  18d11c:	4252      	negs	r2, r2
  18d11e:	2301      	movs	r3, #1
  18d120:	4313      	orrs	r3, r2
  18d122:	9304      	str	r3, [sp, #16]
  18d124:	1c05      	adds	r5, r0, #0
  18d126:	9103      	str	r1, [sp, #12]
  18d128:	2600      	movs	r6, #0
  18d12a:	9702      	str	r7, [sp, #8]
  18d12c:	1c0f      	adds	r7, r1, #0
  18d12e:	e014      	b.n	18d15a <draw_line+0x9a>
  18d130:	9a00      	ldr	r2, [sp, #0]
  18d132:	2a00      	cmp	r2, #0
  18d134:	d002      	beq.n	18d13c <draw_line+0x7c>
  18d136:	1c38      	adds	r0, r7, #0
  18d138:	1c29      	adds	r1, r5, #0
  18d13a:	e001      	b.n	18d140 <draw_line+0x80>
  18d13c:	1c28      	adds	r0, r5, #0
  18d13e:	1c39      	adds	r1, r7, #0
  18d140:	9a02      	ldr	r2, [sp, #8]
  18d142:	f7ff ff24 	bl	18cf8e <draw_pixel>
  18d146:	9b05      	ldr	r3, [sp, #20]
  18d148:	18f6      	adds	r6, r6, r3
  18d14a:	0073      	lsls	r3, r6, #1
  18d14c:	9a01      	ldr	r2, [sp, #4]
  18d14e:	4293      	cmp	r3, r2
  18d150:	db02      	blt.n	18d158 <draw_line+0x98>
  18d152:	9b04      	ldr	r3, [sp, #16]
  18d154:	18ff      	adds	r7, r7, r3
  18d156:	1ab6      	subs	r6, r6, r2
  18d158:	3501      	adds	r5, #1
  18d15a:	42a5      	cmp	r5, r4
  18d15c:	dde8      	ble.n	18d130 <draw_line+0x70>
  18d15e:	b006      	add	sp, #24
  18d160:	bcf0      	pop	{r4, r5, r6, r7}
  18d162:	bc01      	pop	{r0}
  18d164:	4700      	bx	r0

0018d166 <draw_hline>:
  18d166:	b5f0      	push	{r4, r5, r6, r7, lr}
  18d168:	061e      	lsls	r6, r3, #24
  18d16a:	0e36      	lsrs	r6, r6, #24
  18d16c:	2900      	cmp	r1, #0
  18d16e:	db23      	blt.n	18d1b8 <draw_hline+0x52>
  18d170:	4c13      	ldr	r4, [pc, #76]	; (18d1c0 <draw_hline+0x5a>)
  18d172:	6823      	ldr	r3, [r4, #0]
  18d174:	4298      	cmp	r0, r3
  18d176:	da1f      	bge.n	18d1b8 <draw_hline+0x52>
  18d178:	6865      	ldr	r5, [r4, #4]
  18d17a:	42a9      	cmp	r1, r5
  18d17c:	da1c      	bge.n	18d1b8 <draw_hline+0x52>
  18d17e:	2800      	cmp	r0, #0
  18d180:	da01      	bge.n	18d186 <draw_hline+0x20>
  18d182:	1812      	adds	r2, r2, r0
  18d184:	2000      	movs	r0, #0
  18d186:	1885      	adds	r5, r0, r2
  18d188:	429d      	cmp	r5, r3
  18d18a:	dd00      	ble.n	18d18e <draw_hline+0x28>
  18d18c:	1a1a      	subs	r2, r3, r0
  18d18e:	1c03      	adds	r3, r0, #0
  18d190:	430b      	orrs	r3, r1
  18d192:	d101      	bne.n	18d198 <draw_hline+0x32>
  18d194:	3a01      	subs	r2, #1
  18d196:	2001      	movs	r0, #1
  18d198:	6927      	ldr	r7, [r4, #16]
  18d19a:	434f      	muls	r7, r1
  18d19c:	0040      	lsls	r0, r0, #1
  18d19e:	183f      	adds	r7, r7, r0
  18d1a0:	0054      	lsls	r4, r2, #1
  18d1a2:	4d08      	ldr	r5, [pc, #32]	; (18d1c4 <draw_hline+0x5e>)
  18d1a4:	e006      	b.n	18d1b4 <draw_hline+0x4e>
  18d1a6:	682b      	ldr	r3, [r5, #0]
  18d1a8:	1c38      	adds	r0, r7, #0
  18d1aa:	1c31      	adds	r1, r6, #0
  18d1ac:	f000 fd60 	bl	18dc70 <user_color+0x20>
  18d1b0:	3c01      	subs	r4, #1
  18d1b2:	3701      	adds	r7, #1
  18d1b4:	2c00      	cmp	r4, #0
  18d1b6:	dcf6      	bgt.n	18d1a6 <draw_hline+0x40>
  18d1b8:	bcf0      	pop	{r4, r5, r6, r7}
  18d1ba:	bc01      	pop	{r0}
  18d1bc:	4700      	bx	r0
  18d1be:	46c0      	nop			; (mov r8, r8)
  18d1c0:	001a724c 	.word	0x001a724c
  18d1c4:	001aaed8 	.word	0x001aaed8

0018d1c8 <draw_vline>:
  18d1c8:	b5f0      	push	{r4, r5, r6, r7, lr}
  18d1ca:	1c07      	adds	r7, r0, #0
  18d1cc:	1c0c      	adds	r4, r1, #0
  18d1ce:	1c15      	adds	r5, r2, #0
  18d1d0:	061e      	lsls	r6, r3, #24
  18d1d2:	0e36      	lsrs	r6, r6, #24
  18d1d4:	2800      	cmp	r0, #0
  18d1d6:	db18      	blt.n	18d20a <draw_vline+0x42>
  18d1d8:	4b0d      	ldr	r3, [pc, #52]	; (18d210 <draw_vline+0x48>)
  18d1da:	681a      	ldr	r2, [r3, #0]
  18d1dc:	4290      	cmp	r0, r2
  18d1de:	da14      	bge.n	18d20a <draw_vline+0x42>
  18d1e0:	685b      	ldr	r3, [r3, #4]
  18d1e2:	4299      	cmp	r1, r3
  18d1e4:	da11      	bge.n	18d20a <draw_vline+0x42>
  18d1e6:	2900      	cmp	r1, #0
  18d1e8:	da01      	bge.n	18d1ee <draw_vline+0x26>
  18d1ea:	186d      	adds	r5, r5, r1
  18d1ec:	2400      	movs	r4, #0
  18d1ee:	1962      	adds	r2, r4, r5
  18d1f0:	429a      	cmp	r2, r3
  18d1f2:	dd08      	ble.n	18d206 <draw_vline+0x3e>
  18d1f4:	1b1d      	subs	r5, r3, r4
  18d1f6:	e006      	b.n	18d206 <draw_vline+0x3e>
  18d1f8:	1c38      	adds	r0, r7, #0
  18d1fa:	1c21      	adds	r1, r4, #0
  18d1fc:	1c32      	adds	r2, r6, #0
  18d1fe:	f7ff fec6 	bl	18cf8e <draw_pixel>
  18d202:	3d01      	subs	r5, #1
  18d204:	3401      	adds	r4, #1
  18d206:	2d00      	cmp	r5, #0
  18d208:	dcf6      	bgt.n	18d1f8 <draw_vline+0x30>
  18d20a:	bcf0      	pop	{r4, r5, r6, r7}
  18d20c:	bc01      	pop	{r0}
  18d20e:	4700      	bx	r0
  18d210:	001a724c 	.word	0x001a724c

0018d214 <draw_rectangle>:
  18d214:	b5f0      	push	{r4, r5, r6, r7, lr}
  18d216:	b08e      	sub	sp, #56	; 0x38
  18d218:	1c07      	adds	r7, r0, #0
  18d21a:	9100      	str	r1, [sp, #0]
  18d21c:	1c15      	adds	r5, r2, #0
  18d21e:	1c1e      	adds	r6, r3, #0
  18d220:	9b13      	ldr	r3, [sp, #76]	; 0x4c
  18d222:	041b      	lsls	r3, r3, #16
  18d224:	0c1b      	lsrs	r3, r3, #16
  18d226:	9306      	str	r3, [sp, #24]
  18d228:	4290      	cmp	r0, r2
  18d22a:	dd02      	ble.n	18d232 <draw_rectangle+0x1e>
  18d22c:	4057      	eors	r7, r2
  18d22e:	407d      	eors	r5, r7
  18d230:	406f      	eors	r7, r5
  18d232:	9a00      	ldr	r2, [sp, #0]
  18d234:	42b2      	cmp	r2, r6
  18d236:	dd04      	ble.n	18d242 <draw_rectangle+0x2e>
  18d238:	1c13      	adds	r3, r2, #0
  18d23a:	4073      	eors	r3, r6
  18d23c:	405e      	eors	r6, r3
  18d23e:	4073      	eors	r3, r6
  18d240:	9300      	str	r3, [sp, #0]
  18d242:	2e00      	cmp	r6, #0
  18d244:	da00      	bge.n	18d248 <draw_rectangle+0x34>
  18d246:	e0ae      	b.n	18d3a6 <draw_rectangle+0x192>
  18d248:	2d00      	cmp	r5, #0
  18d24a:	da00      	bge.n	18d24e <draw_rectangle+0x3a>
  18d24c:	e0ab      	b.n	18d3a6 <draw_rectangle+0x192>
  18d24e:	4b58      	ldr	r3, [pc, #352]	; (18d3b0 <draw_rectangle+0x19c>)
  18d250:	681a      	ldr	r2, [r3, #0]
  18d252:	4297      	cmp	r7, r2
  18d254:	db00      	blt.n	18d258 <draw_rectangle+0x44>
  18d256:	e0a6      	b.n	18d3a6 <draw_rectangle+0x192>
  18d258:	685b      	ldr	r3, [r3, #4]
  18d25a:	9a00      	ldr	r2, [sp, #0]
  18d25c:	429a      	cmp	r2, r3
  18d25e:	db00      	blt.n	18d262 <draw_rectangle+0x4e>
  18d260:	e0a1      	b.n	18d3a6 <draw_rectangle+0x192>
  18d262:	9b14      	ldr	r3, [sp, #80]	; 0x50
  18d264:	065c      	lsls	r4, r3, #25
  18d266:	0fe4      	lsrs	r4, r4, #31
  18d268:	9404      	str	r4, [sp, #16]
  18d26a:	2330      	movs	r3, #48	; 0x30
  18d26c:	9a14      	ldr	r2, [sp, #80]	; 0x50
  18d26e:	4013      	ands	r3, r2
  18d270:	d019      	beq.n	18d2a6 <draw_rectangle+0x92>
  18d272:	111b      	asrs	r3, r3, #4
  18d274:	9301      	str	r3, [sp, #4]
  18d276:	2401      	movs	r4, #1
  18d278:	1beb      	subs	r3, r5, r7
  18d27a:	9a01      	ldr	r2, [sp, #4]
  18d27c:	189b      	adds	r3, r3, r2
  18d27e:	9302      	str	r3, [sp, #8]
  18d280:	e00e      	b.n	18d2a0 <draw_rectangle+0x8c>
  18d282:	1960      	adds	r0, r4, r5
  18d284:	9900      	ldr	r1, [sp, #0]
  18d286:	3101      	adds	r1, #1
  18d288:	9b00      	ldr	r3, [sp, #0]
  18d28a:	1af2      	subs	r2, r6, r3
  18d28c:	23ff      	movs	r3, #255	; 0xff
  18d28e:	f7ff ff9b 	bl	18d1c8 <draw_vline>
  18d292:	1c78      	adds	r0, r7, #1
  18d294:	19a1      	adds	r1, r4, r6
  18d296:	9a02      	ldr	r2, [sp, #8]
  18d298:	23ff      	movs	r3, #255	; 0xff
  18d29a:	f7ff ff64 	bl	18d166 <draw_hline>
  18d29e:	3401      	adds	r4, #1
  18d2a0:	9a01      	ldr	r2, [sp, #4]
  18d2a2:	4294      	cmp	r4, r2
  18d2a4:	dded      	ble.n	18d282 <draw_rectangle+0x6e>
  18d2a6:	2307      	movs	r3, #7
  18d2a8:	9a14      	ldr	r2, [sp, #80]	; 0x50
  18d2aa:	401a      	ands	r2, r3
  18d2ac:	9207      	str	r2, [sp, #28]
  18d2ae:	9703      	str	r7, [sp, #12]
  18d2b0:	2300      	movs	r3, #0
  18d2b2:	9301      	str	r3, [sp, #4]
  18d2b4:	9a00      	ldr	r2, [sp, #0]
  18d2b6:	1bd2      	subs	r2, r2, r7
  18d2b8:	920c      	str	r2, [sp, #48]	; 0x30
  18d2ba:	9b00      	ldr	r3, [sp, #0]
  18d2bc:	1af3      	subs	r3, r6, r3
  18d2be:	930d      	str	r3, [sp, #52]	; 0x34
  18d2c0:	e03a      	b.n	18d338 <draw_rectangle+0x124>
  18d2c2:	9a04      	ldr	r2, [sp, #16]
  18d2c4:	0053      	lsls	r3, r2, #1
  18d2c6:	9a09      	ldr	r2, [sp, #36]	; 0x24
  18d2c8:	18d3      	adds	r3, r2, r3
  18d2ca:	9305      	str	r3, [sp, #20]
  18d2cc:	9b01      	ldr	r3, [sp, #4]
  18d2ce:	005b      	lsls	r3, r3, #1
  18d2d0:	9308      	str	r3, [sp, #32]
  18d2d2:	9a0d      	ldr	r2, [sp, #52]	; 0x34
  18d2d4:	1ad4      	subs	r4, r2, r3
  18d2d6:	9a04      	ldr	r2, [sp, #16]
  18d2d8:	0093      	lsls	r3, r2, #2
  18d2da:	1ae4      	subs	r4, r4, r3
  18d2dc:	3401      	adds	r4, #1
  18d2de:	9b06      	ldr	r3, [sp, #24]
  18d2e0:	061b      	lsls	r3, r3, #24
  18d2e2:	0e1b      	lsrs	r3, r3, #24
  18d2e4:	9302      	str	r3, [sp, #8]
  18d2e6:	9803      	ldr	r0, [sp, #12]
  18d2e8:	9905      	ldr	r1, [sp, #20]
  18d2ea:	1c22      	adds	r2, r4, #0
  18d2ec:	f7ff ff6c 	bl	18d1c8 <draw_vline>
  18d2f0:	980a      	ldr	r0, [sp, #40]	; 0x28
  18d2f2:	9905      	ldr	r1, [sp, #20]
  18d2f4:	1c22      	adds	r2, r4, #0
  18d2f6:	9b02      	ldr	r3, [sp, #8]
  18d2f8:	f7ff ff66 	bl	18d1c8 <draw_vline>
  18d2fc:	9a03      	ldr	r2, [sp, #12]
  18d2fe:	3201      	adds	r2, #1
  18d300:	9203      	str	r2, [sp, #12]
  18d302:	9b04      	ldr	r3, [sp, #16]
  18d304:	18d3      	adds	r3, r2, r3
  18d306:	9305      	str	r3, [sp, #20]
  18d308:	1bec      	subs	r4, r5, r7
  18d30a:	9a08      	ldr	r2, [sp, #32]
  18d30c:	1aa4      	subs	r4, r4, r2
  18d30e:	9a04      	ldr	r2, [sp, #16]
  18d310:	0053      	lsls	r3, r2, #1
  18d312:	1ae4      	subs	r4, r4, r3
  18d314:	3c01      	subs	r4, #1
  18d316:	9805      	ldr	r0, [sp, #20]
  18d318:	9909      	ldr	r1, [sp, #36]	; 0x24
  18d31a:	1c22      	adds	r2, r4, #0
  18d31c:	9b02      	ldr	r3, [sp, #8]
  18d31e:	f7ff ff22 	bl	18d166 <draw_hline>
  18d322:	9805      	ldr	r0, [sp, #20]
  18d324:	990b      	ldr	r1, [sp, #44]	; 0x2c
  18d326:	1c22      	adds	r2, r4, #0
  18d328:	9b02      	ldr	r3, [sp, #8]
  18d32a:	f7ff ff1c 	bl	18d166 <draw_hline>
  18d32e:	9b01      	ldr	r3, [sp, #4]
  18d330:	3301      	adds	r3, #1
  18d332:	9301      	str	r3, [sp, #4]
  18d334:	2200      	movs	r2, #0
  18d336:	9204      	str	r2, [sp, #16]
  18d338:	9b01      	ldr	r3, [sp, #4]
  18d33a:	1af3      	subs	r3, r6, r3
  18d33c:	930b      	str	r3, [sp, #44]	; 0x2c
  18d33e:	9a01      	ldr	r2, [sp, #4]
  18d340:	1aaa      	subs	r2, r5, r2
  18d342:	920a      	str	r2, [sp, #40]	; 0x28
  18d344:	9b0c      	ldr	r3, [sp, #48]	; 0x30
  18d346:	9a03      	ldr	r2, [sp, #12]
  18d348:	189b      	adds	r3, r3, r2
  18d34a:	9309      	str	r3, [sp, #36]	; 0x24
  18d34c:	9b01      	ldr	r3, [sp, #4]
  18d34e:	9a07      	ldr	r2, [sp, #28]
  18d350:	4293      	cmp	r3, r2
  18d352:	dbb6      	blt.n	18d2c2 <draw_rectangle+0xae>
  18d354:	43d3      	mvns	r3, r2
  18d356:	17db      	asrs	r3, r3, #31
  18d358:	4013      	ands	r3, r2
  18d35a:	18ff      	adds	r7, r7, r3
  18d35c:	9a00      	ldr	r2, [sp, #0]
  18d35e:	18d1      	adds	r1, r2, r3
  18d360:	1aea      	subs	r2, r5, r3
  18d362:	1af6      	subs	r6, r6, r3
  18d364:	9b14      	ldr	r3, [sp, #80]	; 0x50
  18d366:	071b      	lsls	r3, r3, #28
  18d368:	d51d      	bpl.n	18d3a6 <draw_rectangle+0x192>
  18d36a:	43fb      	mvns	r3, r7
  18d36c:	17db      	asrs	r3, r3, #31
  18d36e:	401f      	ands	r7, r3
  18d370:	43cc      	mvns	r4, r1
  18d372:	17e4      	asrs	r4, r4, #31
  18d374:	400c      	ands	r4, r1
  18d376:	480e      	ldr	r0, [pc, #56]	; (18d3b0 <draw_rectangle+0x19c>)
  18d378:	6803      	ldr	r3, [r0, #0]
  18d37a:	429a      	cmp	r2, r3
  18d37c:	db00      	blt.n	18d380 <draw_rectangle+0x16c>
  18d37e:	1e5a      	subs	r2, r3, #1
  18d380:	6843      	ldr	r3, [r0, #4]
  18d382:	429e      	cmp	r6, r3
  18d384:	db00      	blt.n	18d388 <draw_rectangle+0x174>
  18d386:	1e5e      	subs	r6, r3, #1
  18d388:	9b06      	ldr	r3, [sp, #24]
  18d38a:	0a1d      	lsrs	r5, r3, #8
  18d38c:	1bd2      	subs	r2, r2, r7
  18d38e:	3201      	adds	r2, #1
  18d390:	9200      	str	r2, [sp, #0]
  18d392:	e006      	b.n	18d3a2 <draw_rectangle+0x18e>
  18d394:	1c38      	adds	r0, r7, #0
  18d396:	1c21      	adds	r1, r4, #0
  18d398:	9a00      	ldr	r2, [sp, #0]
  18d39a:	1c2b      	adds	r3, r5, #0
  18d39c:	f7ff fee3 	bl	18d166 <draw_hline>
  18d3a0:	3401      	adds	r4, #1
  18d3a2:	42b4      	cmp	r4, r6
  18d3a4:	ddf6      	ble.n	18d394 <draw_rectangle+0x180>
  18d3a6:	b00e      	add	sp, #56	; 0x38
  18d3a8:	bcf0      	pop	{r4, r5, r6, r7}
  18d3aa:	bc01      	pop	{r0}
  18d3ac:	4700      	bx	r0
  18d3ae:	46c0      	nop			; (mov r8, r8)
  18d3b0:	001a724c 	.word	0x001a724c

0018d3b4 <draw_char>:
  18d3b4:	b5f0      	push	{r4, r5, r6, r7, lr}
  18d3b6:	b089      	sub	sp, #36	; 0x24
  18d3b8:	9000      	str	r0, [sp, #0]
  18d3ba:	9101      	str	r1, [sp, #4]
  18d3bc:	0612      	lsls	r2, r2, #24
  18d3be:	0e12      	lsrs	r2, r2, #24
  18d3c0:	041e      	lsls	r6, r3, #16
  18d3c2:	0c31      	lsrs	r1, r6, #16
  18d3c4:	9105      	str	r1, [sp, #20]
  18d3c6:	a807      	add	r0, sp, #28
  18d3c8:	a908      	add	r1, sp, #32
  18d3ca:	f7ff fd5f 	bl	18ce8c <get_cdata>
  18d3ce:	1c05      	adds	r5, r0, #0
  18d3d0:	0e36      	lsrs	r6, r6, #24
  18d3d2:	0637      	lsls	r7, r6, #24
  18d3d4:	0e3f      	lsrs	r7, r7, #24
  18d3d6:	2400      	movs	r4, #0
  18d3d8:	e007      	b.n	18d3ea <draw_char+0x36>
  18d3da:	9a01      	ldr	r2, [sp, #4]
  18d3dc:	18a1      	adds	r1, r4, r2
  18d3de:	9800      	ldr	r0, [sp, #0]
  18d3e0:	2208      	movs	r2, #8
  18d3e2:	1c3b      	adds	r3, r7, #0
  18d3e4:	f7ff febf 	bl	18d166 <draw_hline>
  18d3e8:	3401      	adds	r4, #1
  18d3ea:	9b07      	ldr	r3, [sp, #28]
  18d3ec:	429c      	cmp	r4, r3
  18d3ee:	d3f4      	bcc.n	18d3da <draw_char+0x26>
  18d3f0:	0636      	lsls	r6, r6, #24
  18d3f2:	0e36      	lsrs	r6, r6, #24
  18d3f4:	192d      	adds	r5, r5, r4
  18d3f6:	9502      	str	r5, [sp, #8]
  18d3f8:	e03b      	b.n	18d472 <draw_char+0xbe>
  18d3fa:	9b02      	ldr	r3, [sp, #8]
  18d3fc:	781a      	ldrb	r2, [r3, #0]
  18d3fe:	237f      	movs	r3, #127	; 0x7f
  18d400:	4013      	ands	r3, r2
  18d402:	4925      	ldr	r1, [pc, #148]	; (18d498 <draw_char+0xe4>)
  18d404:	5ccb      	ldrb	r3, [r1, r3]
  18d406:	9304      	str	r3, [sp, #16]
  18d408:	2380      	movs	r3, #128	; 0x80
  18d40a:	401a      	ands	r2, r3
  18d40c:	9203      	str	r2, [sp, #12]
  18d40e:	2500      	movs	r5, #0
  18d410:	9a01      	ldr	r2, [sp, #4]
  18d412:	1912      	adds	r2, r2, r4
  18d414:	9206      	str	r2, [sp, #24]
  18d416:	9b00      	ldr	r3, [sp, #0]
  18d418:	18e8      	adds	r0, r5, r3
  18d41a:	2380      	movs	r3, #128	; 0x80
  18d41c:	412b      	asrs	r3, r5
  18d41e:	1c32      	adds	r2, r6, #0
  18d420:	9904      	ldr	r1, [sp, #16]
  18d422:	4219      	tst	r1, r3
  18d424:	d002      	beq.n	18d42c <draw_char+0x78>
  18d426:	9b05      	ldr	r3, [sp, #20]
  18d428:	061a      	lsls	r2, r3, #24
  18d42a:	0e12      	lsrs	r2, r2, #24
  18d42c:	9906      	ldr	r1, [sp, #24]
  18d42e:	f7ff fdae 	bl	18cf8e <draw_pixel>
  18d432:	3501      	adds	r5, #1
  18d434:	2d08      	cmp	r5, #8
  18d436:	d1ee      	bne.n	18d416 <draw_char+0x62>
  18d438:	9903      	ldr	r1, [sp, #12]
  18d43a:	2900      	cmp	r1, #0
  18d43c:	d015      	beq.n	18d46a <draw_char+0xb6>
  18d43e:	3401      	adds	r4, #1
  18d440:	2500      	movs	r5, #0
  18d442:	9a01      	ldr	r2, [sp, #4]
  18d444:	1912      	adds	r2, r2, r4
  18d446:	9203      	str	r2, [sp, #12]
  18d448:	9b00      	ldr	r3, [sp, #0]
  18d44a:	18e8      	adds	r0, r5, r3
  18d44c:	2380      	movs	r3, #128	; 0x80
  18d44e:	412b      	asrs	r3, r5
  18d450:	1c32      	adds	r2, r6, #0
  18d452:	9904      	ldr	r1, [sp, #16]
  18d454:	4219      	tst	r1, r3
  18d456:	d002      	beq.n	18d45e <draw_char+0xaa>
  18d458:	9b05      	ldr	r3, [sp, #20]
  18d45a:	061a      	lsls	r2, r3, #24
  18d45c:	0e12      	lsrs	r2, r2, #24
  18d45e:	9903      	ldr	r1, [sp, #12]
  18d460:	f7ff fd95 	bl	18cf8e <draw_pixel>
  18d464:	3501      	adds	r5, #1
  18d466:	2d08      	cmp	r5, #8
  18d468:	d1ee      	bne.n	18d448 <draw_char+0x94>
  18d46a:	3401      	adds	r4, #1
  18d46c:	9902      	ldr	r1, [sp, #8]
  18d46e:	3101      	adds	r1, #1
  18d470:	9102      	str	r1, [sp, #8]
  18d472:	9b08      	ldr	r3, [sp, #32]
  18d474:	429c      	cmp	r4, r3
  18d476:	d3c0      	bcc.n	18d3fa <draw_char+0x46>
  18d478:	e007      	b.n	18d48a <draw_char+0xd6>
  18d47a:	9a01      	ldr	r2, [sp, #4]
  18d47c:	18a1      	adds	r1, r4, r2
  18d47e:	9800      	ldr	r0, [sp, #0]
  18d480:	2208      	movs	r2, #8
  18d482:	1c3b      	adds	r3, r7, #0
  18d484:	f7ff fe6f 	bl	18d166 <draw_hline>
  18d488:	3401      	adds	r4, #1
  18d48a:	2c0f      	cmp	r4, #15
  18d48c:	ddf5      	ble.n	18d47a <draw_char+0xc6>
  18d48e:	b009      	add	sp, #36	; 0x24
  18d490:	bcf0      	pop	{r4, r5, r6, r7}
  18d492:	bc01      	pop	{r0}
  18d494:	4700      	bx	r0
  18d496:	46c0      	nop			; (mov r8, r8)
  18d498:	001a8280 	.word	0x001a8280

0018d49c <draw_char_scaled>:
  18d49c:	b5f0      	push	{r4, r5, r6, r7, lr}
  18d49e:	b091      	sub	sp, #68	; 0x44
  18d4a0:	1c06      	adds	r6, r0, #0
  18d4a2:	9103      	str	r1, [sp, #12]
  18d4a4:	9d17      	ldr	r5, [sp, #92]	; 0x5c
  18d4a6:	0612      	lsls	r2, r2, #24
  18d4a8:	0e12      	lsrs	r2, r2, #24
  18d4aa:	0419      	lsls	r1, r3, #16
  18d4ac:	061b      	lsls	r3, r3, #24
  18d4ae:	0e1b      	lsrs	r3, r3, #24
  18d4b0:	0218      	lsls	r0, r3, #8
  18d4b2:	4318      	orrs	r0, r3
  18d4b4:	9009      	str	r0, [sp, #36]	; 0x24
  18d4b6:	0e0b      	lsrs	r3, r1, #24
  18d4b8:	0219      	lsls	r1, r3, #8
  18d4ba:	4319      	orrs	r1, r3
  18d4bc:	9104      	str	r1, [sp, #16]
  18d4be:	a80f      	add	r0, sp, #60	; 0x3c
  18d4c0:	a910      	add	r1, sp, #64	; 0x40
  18d4c2:	f7ff fce3 	bl	18ce8c <get_cdata>
  18d4c6:	1c07      	adds	r7, r0, #0
  18d4c8:	990f      	ldr	r1, [sp, #60]	; 0x3c
  18d4ca:	2900      	cmp	r1, #0
  18d4cc:	d010      	beq.n	18d4f0 <draw_char_scaled+0x54>
  18d4ce:	9b16      	ldr	r3, [sp, #88]	; 0x58
  18d4d0:	00da      	lsls	r2, r3, #3
  18d4d2:	18b2      	adds	r2, r6, r2
  18d4d4:	3a01      	subs	r2, #1
  18d4d6:	9b03      	ldr	r3, [sp, #12]
  18d4d8:	3b01      	subs	r3, #1
  18d4da:	195b      	adds	r3, r3, r5
  18d4dc:	4369      	muls	r1, r5
  18d4de:	185b      	adds	r3, r3, r1
  18d4e0:	9904      	ldr	r1, [sp, #16]
  18d4e2:	9100      	str	r1, [sp, #0]
  18d4e4:	2108      	movs	r1, #8
  18d4e6:	9101      	str	r1, [sp, #4]
  18d4e8:	1c30      	adds	r0, r6, #0
  18d4ea:	9903      	ldr	r1, [sp, #12]
  18d4ec:	f7ff fe92 	bl	18d214 <draw_rectangle>
  18d4f0:	9c0f      	ldr	r4, [sp, #60]	; 0x3c
  18d4f2:	9a16      	ldr	r2, [sp, #88]	; 0x58
  18d4f4:	00d3      	lsls	r3, r2, #3
  18d4f6:	18f3      	adds	r3, r6, r3
  18d4f8:	3b01      	subs	r3, #1
  18d4fa:	930b      	str	r3, [sp, #44]	; 0x2c
  18d4fc:	193f      	adds	r7, r7, r4
  18d4fe:	9707      	str	r7, [sp, #28]
  18d500:	18b3      	adds	r3, r6, r2
  18d502:	3b01      	subs	r3, #1
  18d504:	930e      	str	r3, [sp, #56]	; 0x38
  18d506:	e05a      	b.n	18d5be <draw_char_scaled+0x122>
  18d508:	9b07      	ldr	r3, [sp, #28]
  18d50a:	781a      	ldrb	r2, [r3, #0]
  18d50c:	237f      	movs	r3, #127	; 0x7f
  18d50e:	4013      	ands	r3, r2
  18d510:	4937      	ldr	r1, [pc, #220]	; (18d5f0 <draw_char_scaled+0x154>)
  18d512:	5ccb      	ldrb	r3, [r1, r3]
  18d514:	930a      	str	r3, [sp, #40]	; 0x28
  18d516:	2380      	movs	r3, #128	; 0x80
  18d518:	401a      	ands	r2, r3
  18d51a:	9208      	str	r2, [sp, #32]
  18d51c:	1c2a      	adds	r2, r5, #0
  18d51e:	4362      	muls	r2, r4
  18d520:	9903      	ldr	r1, [sp, #12]
  18d522:	188a      	adds	r2, r1, r2
  18d524:	9202      	str	r2, [sp, #8]
  18d526:	9a0a      	ldr	r2, [sp, #40]	; 0x28
  18d528:	401a      	ands	r2, r3
  18d52a:	920d      	str	r2, [sp, #52]	; 0x34
  18d52c:	e001      	b.n	18d532 <draw_char_scaled+0x96>
  18d52e:	2300      	movs	r3, #0
  18d530:	9308      	str	r3, [sp, #32]
  18d532:	9b0d      	ldr	r3, [sp, #52]	; 0x34
  18d534:	1e6a      	subs	r2, r5, #1
  18d536:	9902      	ldr	r1, [sp, #8]
  18d538:	1852      	adds	r2, r2, r1
  18d53a:	920c      	str	r2, [sp, #48]	; 0x30
  18d53c:	9a0e      	ldr	r2, [sp, #56]	; 0x38
  18d53e:	9205      	str	r2, [sp, #20]
  18d540:	2001      	movs	r0, #1
  18d542:	1c07      	adds	r7, r0, #0
  18d544:	e000      	b.n	18d548 <draw_char_scaled+0xac>
  18d546:	9b06      	ldr	r3, [sp, #24]
  18d548:	9a0a      	ldr	r2, [sp, #40]	; 0x28
  18d54a:	40ba      	lsls	r2, r7
  18d54c:	2180      	movs	r1, #128	; 0x80
  18d54e:	4011      	ands	r1, r2
  18d550:	9106      	str	r1, [sp, #24]
  18d552:	4299      	cmp	r1, r3
  18d554:	d011      	beq.n	18d57a <draw_char_scaled+0xde>
  18d556:	1a38      	subs	r0, r7, r0
  18d558:	9a16      	ldr	r2, [sp, #88]	; 0x58
  18d55a:	4350      	muls	r0, r2
  18d55c:	1830      	adds	r0, r6, r0
  18d55e:	9a04      	ldr	r2, [sp, #16]
  18d560:	2b00      	cmp	r3, #0
  18d562:	d000      	beq.n	18d566 <draw_char_scaled+0xca>
  18d564:	9a09      	ldr	r2, [sp, #36]	; 0x24
  18d566:	9200      	str	r2, [sp, #0]
  18d568:	2308      	movs	r3, #8
  18d56a:	9301      	str	r3, [sp, #4]
  18d56c:	9902      	ldr	r1, [sp, #8]
  18d56e:	9a05      	ldr	r2, [sp, #20]
  18d570:	9b0c      	ldr	r3, [sp, #48]	; 0x30
  18d572:	f7ff fe4f 	bl	18d214 <draw_rectangle>
  18d576:	2001      	movs	r0, #1
  18d578:	e000      	b.n	18d57c <draw_char_scaled+0xe0>
  18d57a:	3001      	adds	r0, #1
  18d57c:	3701      	adds	r7, #1
  18d57e:	9905      	ldr	r1, [sp, #20]
  18d580:	9a16      	ldr	r2, [sp, #88]	; 0x58
  18d582:	1889      	adds	r1, r1, r2
  18d584:	9105      	str	r1, [sp, #20]
  18d586:	2f08      	cmp	r7, #8
  18d588:	d1dd      	bne.n	18d546 <draw_char_scaled+0xaa>
  18d58a:	1a38      	subs	r0, r7, r0
  18d58c:	4350      	muls	r0, r2
  18d58e:	1830      	adds	r0, r6, r0
  18d590:	9b04      	ldr	r3, [sp, #16]
  18d592:	9906      	ldr	r1, [sp, #24]
  18d594:	2900      	cmp	r1, #0
  18d596:	d000      	beq.n	18d59a <draw_char_scaled+0xfe>
  18d598:	9b09      	ldr	r3, [sp, #36]	; 0x24
  18d59a:	9300      	str	r3, [sp, #0]
  18d59c:	2308      	movs	r3, #8
  18d59e:	9301      	str	r3, [sp, #4]
  18d5a0:	9902      	ldr	r1, [sp, #8]
  18d5a2:	9a0b      	ldr	r2, [sp, #44]	; 0x2c
  18d5a4:	9b0c      	ldr	r3, [sp, #48]	; 0x30
  18d5a6:	f7ff fe35 	bl	18d214 <draw_rectangle>
  18d5aa:	3401      	adds	r4, #1
  18d5ac:	9a02      	ldr	r2, [sp, #8]
  18d5ae:	1952      	adds	r2, r2, r5
  18d5b0:	9202      	str	r2, [sp, #8]
  18d5b2:	9b08      	ldr	r3, [sp, #32]
  18d5b4:	2b80      	cmp	r3, #128	; 0x80
  18d5b6:	d0ba      	beq.n	18d52e <draw_char_scaled+0x92>
  18d5b8:	9907      	ldr	r1, [sp, #28]
  18d5ba:	3101      	adds	r1, #1
  18d5bc:	9107      	str	r1, [sp, #28]
  18d5be:	9b10      	ldr	r3, [sp, #64]	; 0x40
  18d5c0:	429c      	cmp	r4, r3
  18d5c2:	d3a1      	bcc.n	18d508 <draw_char_scaled+0x6c>
  18d5c4:	2c0f      	cmp	r4, #15
  18d5c6:	dc0e      	bgt.n	18d5e6 <draw_char_scaled+0x14a>
  18d5c8:	436c      	muls	r4, r5
  18d5ca:	9a03      	ldr	r2, [sp, #12]
  18d5cc:	1911      	adds	r1, r2, r4
  18d5ce:	012b      	lsls	r3, r5, #4
  18d5d0:	18d3      	adds	r3, r2, r3
  18d5d2:	195d      	adds	r5, r3, r5
  18d5d4:	1e6b      	subs	r3, r5, #1
  18d5d6:	9a04      	ldr	r2, [sp, #16]
  18d5d8:	9200      	str	r2, [sp, #0]
  18d5da:	2208      	movs	r2, #8
  18d5dc:	9201      	str	r2, [sp, #4]
  18d5de:	1c30      	adds	r0, r6, #0
  18d5e0:	9a0b      	ldr	r2, [sp, #44]	; 0x2c
  18d5e2:	f7ff fe17 	bl	18d214 <draw_rectangle>
  18d5e6:	b011      	add	sp, #68	; 0x44
  18d5e8:	bcf0      	pop	{r4, r5, r6, r7}
  18d5ea:	bc01      	pop	{r0}
  18d5ec:	4700      	bx	r0
  18d5ee:	46c0      	nop			; (mov r8, r8)
  18d5f0:	001a8280 	.word	0x001a8280

0018d5f4 <draw_string_clipped>:
  18d5f4:	b5f3      	push	{r0, r1, r4, r5, r6, r7, lr}
  18d5f6:	1c04      	adds	r4, r0, #0
  18d5f8:	9101      	str	r1, [sp, #4]
  18d5fa:	041f      	lsls	r7, r3, #16
  18d5fc:	0c3f      	lsrs	r7, r7, #16
  18d5fe:	1c15      	adds	r5, r2, #0
  18d600:	4e14      	ldr	r6, [pc, #80]	; (18d654 <draw_string_clipped+0x60>)
  18d602:	e01a      	b.n	18d63a <draw_string_clipped+0x46>
  18d604:	1c20      	adds	r0, r4, #0
  18d606:	9901      	ldr	r1, [sp, #4]
  18d608:	1c3b      	adds	r3, r7, #0
  18d60a:	f7ff fed3 	bl	18d3b4 <draw_char>
  18d60e:	9907      	ldr	r1, [sp, #28]
  18d610:	3908      	subs	r1, #8
  18d612:	9107      	str	r1, [sp, #28]
  18d614:	1c22      	adds	r2, r4, #0
  18d616:	3208      	adds	r2, #8
  18d618:	9200      	str	r2, [sp, #0]
  18d61a:	6833      	ldr	r3, [r6, #0]
  18d61c:	429a      	cmp	r2, r3
  18d61e:	db0a      	blt.n	18d636 <draw_string_clipped+0x42>
  18d620:	786b      	ldrb	r3, [r5, #1]
  18d622:	2b00      	cmp	r3, #0
  18d624:	d007      	beq.n	18d636 <draw_string_clipped+0x42>
  18d626:	1c20      	adds	r0, r4, #0
  18d628:	9901      	ldr	r1, [sp, #4]
  18d62a:	223e      	movs	r2, #62	; 0x3e
  18d62c:	1c3b      	adds	r3, r7, #0
  18d62e:	f7ff fec1 	bl	18d3b4 <draw_char>
  18d632:	9c00      	ldr	r4, [sp, #0]
  18d634:	e009      	b.n	18d64a <draw_string_clipped+0x56>
  18d636:	3501      	adds	r5, #1
  18d638:	9c00      	ldr	r4, [sp, #0]
  18d63a:	782a      	ldrb	r2, [r5, #0]
  18d63c:	2a0a      	cmp	r2, #10
  18d63e:	d004      	beq.n	18d64a <draw_string_clipped+0x56>
  18d640:	2a00      	cmp	r2, #0
  18d642:	d002      	beq.n	18d64a <draw_string_clipped+0x56>
  18d644:	9b07      	ldr	r3, [sp, #28]
  18d646:	2b07      	cmp	r3, #7
  18d648:	dcdc      	bgt.n	18d604 <draw_string_clipped+0x10>
  18d64a:	1c20      	adds	r0, r4, #0
  18d64c:	bcf6      	pop	{r1, r2, r4, r5, r6, r7}
  18d64e:	bc02      	pop	{r1}
  18d650:	4708      	bx	r1
  18d652:	46c0      	nop			; (mov r8, r8)
  18d654:	001a724c 	.word	0x001a724c

0018d658 <draw_string>:
  18d658:	b511      	push	{r0, r4, lr}
  18d65a:	041b      	lsls	r3, r3, #16
  18d65c:	0c1b      	lsrs	r3, r3, #16
  18d65e:	4c04      	ldr	r4, [pc, #16]	; (18d670 <draw_string+0x18>)
  18d660:	6824      	ldr	r4, [r4, #0]
  18d662:	9400      	str	r4, [sp, #0]
  18d664:	f7ff ffc6 	bl	18d5f4 <draw_string_clipped>
  18d668:	bc12      	pop	{r1, r4}
  18d66a:	bc02      	pop	{r1}
  18d66c:	4708      	bx	r1
  18d66e:	46c0      	nop			; (mov r8, r8)
  18d670:	001a724c 	.word	0x001a724c

0018d674 <draw_string_justified>:
  18d674:	b5f0      	push	{r4, r5, r6, r7, lr}
  18d676:	b086      	sub	sp, #24
  18d678:	1c06      	adds	r6, r0, #0
  18d67a:	9102      	str	r1, [sp, #8]
  18d67c:	9204      	str	r2, [sp, #16]
  18d67e:	9d0b      	ldr	r5, [sp, #44]	; 0x2c
  18d680:	9c0c      	ldr	r4, [sp, #48]	; 0x30
  18d682:	041f      	lsls	r7, r3, #16
  18d684:	0c3f      	lsrs	r7, r7, #16
  18d686:	1c10      	adds	r0, r2, #0
  18d688:	210a      	movs	r1, #10
  18d68a:	f012 fbb9 	bl	19fe00 <__strchr_from_thumb>
  18d68e:	2800      	cmp	r0, #0
  18d690:	d002      	beq.n	18d698 <draw_string_justified+0x24>
  18d692:	9a04      	ldr	r2, [sp, #16]
  18d694:	1a80      	subs	r0, r0, r2
  18d696:	e002      	b.n	18d69e <draw_string_justified+0x2a>
  18d698:	9804      	ldr	r0, [sp, #16]
  18d69a:	f012 fab1 	bl	19fc00 <__strlen_from_thumb>
  18d69e:	00c0      	lsls	r0, r0, #3
  18d6a0:	42a0      	cmp	r0, r4
  18d6a2:	dd00      	ble.n	18d6a6 <draw_string_justified+0x32>
  18d6a4:	1c20      	adds	r0, r4, #0
  18d6a6:	230f      	movs	r3, #15
  18d6a8:	9a0d      	ldr	r2, [sp, #52]	; 0x34
  18d6aa:	4013      	ands	r3, r2
  18d6ac:	2b01      	cmp	r3, #1
  18d6ae:	d003      	beq.n	18d6b8 <draw_string_justified+0x44>
  18d6b0:	2b02      	cmp	r3, #2
  18d6b2:	d103      	bne.n	18d6bc <draw_string_justified+0x48>
  18d6b4:	1a25      	subs	r5, r4, r0
  18d6b6:	e001      	b.n	18d6bc <draw_string_justified+0x48>
  18d6b8:	1a25      	subs	r5, r4, r0
  18d6ba:	106d      	asrs	r5, r5, #1
  18d6bc:	9a0d      	ldr	r2, [sp, #52]	; 0x34
  18d6be:	06d3      	lsls	r3, r2, #27
  18d6c0:	0fdb      	lsrs	r3, r3, #31
  18d6c2:	9303      	str	r3, [sp, #12]
  18d6c4:	2d00      	cmp	r5, #0
  18d6c6:	dd0c      	ble.n	18d6e2 <draw_string_justified+0x6e>
  18d6c8:	2b00      	cmp	r3, #0
  18d6ca:	d00a      	beq.n	18d6e2 <draw_string_justified+0x6e>
  18d6cc:	1972      	adds	r2, r6, r5
  18d6ce:	3a01      	subs	r2, #1
  18d6d0:	9b02      	ldr	r3, [sp, #8]
  18d6d2:	330f      	adds	r3, #15
  18d6d4:	9700      	str	r7, [sp, #0]
  18d6d6:	2108      	movs	r1, #8
  18d6d8:	9101      	str	r1, [sp, #4]
  18d6da:	1c30      	adds	r0, r6, #0
  18d6dc:	9902      	ldr	r1, [sp, #8]
  18d6de:	f7ff fd99 	bl	18d214 <draw_rectangle>
  18d6e2:	1973      	adds	r3, r6, r5
  18d6e4:	9305      	str	r3, [sp, #20]
  18d6e6:	1b65      	subs	r5, r4, r5
  18d6e8:	9500      	str	r5, [sp, #0]
  18d6ea:	1c18      	adds	r0, r3, #0
  18d6ec:	9902      	ldr	r1, [sp, #8]
  18d6ee:	9a04      	ldr	r2, [sp, #16]
  18d6f0:	1c3b      	adds	r3, r7, #0
  18d6f2:	f7ff ff7f 	bl	18d5f4 <draw_string_clipped>
  18d6f6:	1b83      	subs	r3, r0, r6
  18d6f8:	42a3      	cmp	r3, r4
  18d6fa:	da0c      	bge.n	18d716 <draw_string_justified+0xa2>
  18d6fc:	9a03      	ldr	r2, [sp, #12]
  18d6fe:	2a00      	cmp	r2, #0
  18d700:	d009      	beq.n	18d716 <draw_string_justified+0xa2>
  18d702:	1934      	adds	r4, r6, r4
  18d704:	1e62      	subs	r2, r4, #1
  18d706:	9b02      	ldr	r3, [sp, #8]
  18d708:	330f      	adds	r3, #15
  18d70a:	9700      	str	r7, [sp, #0]
  18d70c:	2108      	movs	r1, #8
  18d70e:	9101      	str	r1, [sp, #4]
  18d710:	9902      	ldr	r1, [sp, #8]
  18d712:	f7ff fd7f 	bl	18d214 <draw_rectangle>
  18d716:	9805      	ldr	r0, [sp, #20]
  18d718:	b006      	add	sp, #24
  18d71a:	bcf0      	pop	{r4, r5, r6, r7}
  18d71c:	bc02      	pop	{r1}
  18d71e:	4708      	bx	r1

0018d720 <text_dimensions>:
  18d720:	b5f3      	push	{r0, r1, r4, r5, r6, r7, lr}
  18d722:	1c04      	adds	r4, r0, #0
  18d724:	9100      	str	r1, [sp, #0]
  18d726:	9201      	str	r2, [sp, #4]
  18d728:	1c1d      	adds	r5, r3, #0
  18d72a:	2700      	movs	r7, #0
  18d72c:	e011      	b.n	18d752 <text_dimensions+0x32>
  18d72e:	1c20      	adds	r0, r4, #0
  18d730:	210a      	movs	r1, #10
  18d732:	f012 fb65 	bl	19fe00 <__strchr_from_thumb>
  18d736:	1e06      	subs	r6, r0, #0
  18d738:	d002      	beq.n	18d740 <text_dimensions+0x20>
  18d73a:	1b30      	subs	r0, r6, r4
  18d73c:	3601      	adds	r6, #1
  18d73e:	e002      	b.n	18d746 <text_dimensions+0x26>
  18d740:	1c20      	adds	r0, r4, #0
  18d742:	f012 fa5d 	bl	19fc00 <__strlen_from_thumb>
  18d746:	9b00      	ldr	r3, [sp, #0]
  18d748:	4283      	cmp	r3, r0
  18d74a:	da00      	bge.n	18d74e <text_dimensions+0x2e>
  18d74c:	9000      	str	r0, [sp, #0]
  18d74e:	3701      	adds	r7, #1
  18d750:	1c34      	adds	r4, r6, #0
  18d752:	2c00      	cmp	r4, #0
  18d754:	d005      	beq.n	18d762 <text_dimensions+0x42>
  18d756:	7823      	ldrb	r3, [r4, #0]
  18d758:	2b00      	cmp	r3, #0
  18d75a:	d002      	beq.n	18d762 <text_dimensions+0x42>
  18d75c:	682b      	ldr	r3, [r5, #0]
  18d75e:	429f      	cmp	r7, r3
  18d760:	dbe5      	blt.n	18d72e <text_dimensions+0xe>
  18d762:	602f      	str	r7, [r5, #0]
  18d764:	9800      	ldr	r0, [sp, #0]
  18d766:	9b01      	ldr	r3, [sp, #4]
  18d768:	4298      	cmp	r0, r3
  18d76a:	dd00      	ble.n	18d76e <text_dimensions+0x4e>
  18d76c:	1c18      	adds	r0, r3, #0
  18d76e:	bcf6      	pop	{r1, r2, r4, r5, r6, r7}
  18d770:	bc02      	pop	{r1}
  18d772:	4708      	bx	r1

0018d774 <draw_text_justified>:
  18d774:	b5f0      	push	{r4, r5, r6, r7, lr}
  18d776:	b085      	sub	sp, #20
  18d778:	9004      	str	r0, [sp, #16]
  18d77a:	1c0e      	adds	r6, r1, #0
  18d77c:	1c14      	adds	r4, r2, #0
  18d77e:	041f      	lsls	r7, r3, #16
  18d780:	0c3f      	lsrs	r7, r7, #16
  18d782:	9b0a      	ldr	r3, [sp, #40]	; 0x28
  18d784:	00db      	lsls	r3, r3, #3
  18d786:	9303      	str	r3, [sp, #12]
  18d788:	2000      	movs	r0, #0
  18d78a:	e018      	b.n	18d7be <draw_text_justified+0x4a>
  18d78c:	1c20      	adds	r0, r4, #0
  18d78e:	210a      	movs	r1, #10
  18d790:	f012 fb36 	bl	19fe00 <__strchr_from_thumb>
  18d794:	1c03      	adds	r3, r0, #0
  18d796:	1e5a      	subs	r2, r3, #1
  18d798:	4193      	sbcs	r3, r2
  18d79a:	18c5      	adds	r5, r0, r3
  18d79c:	2200      	movs	r2, #0
  18d79e:	9200      	str	r2, [sp, #0]
  18d7a0:	9b03      	ldr	r3, [sp, #12]
  18d7a2:	9301      	str	r3, [sp, #4]
  18d7a4:	9a0c      	ldr	r2, [sp, #48]	; 0x30
  18d7a6:	9202      	str	r2, [sp, #8]
  18d7a8:	9804      	ldr	r0, [sp, #16]
  18d7aa:	1c31      	adds	r1, r6, #0
  18d7ac:	1c22      	adds	r2, r4, #0
  18d7ae:	1c3b      	adds	r3, r7, #0
  18d7b0:	f7ff ff60 	bl	18d674 <draw_string_justified>
  18d7b4:	3610      	adds	r6, #16
  18d7b6:	9b0b      	ldr	r3, [sp, #44]	; 0x2c
  18d7b8:	3b01      	subs	r3, #1
  18d7ba:	930b      	str	r3, [sp, #44]	; 0x2c
  18d7bc:	1c2c      	adds	r4, r5, #0
  18d7be:	2c00      	cmp	r4, #0
  18d7c0:	d005      	beq.n	18d7ce <draw_text_justified+0x5a>
  18d7c2:	7823      	ldrb	r3, [r4, #0]
  18d7c4:	2b00      	cmp	r3, #0
  18d7c6:	d002      	beq.n	18d7ce <draw_text_justified+0x5a>
  18d7c8:	9a0b      	ldr	r2, [sp, #44]	; 0x2c
  18d7ca:	2a00      	cmp	r2, #0
  18d7cc:	dcde      	bgt.n	18d78c <draw_text_justified+0x18>
  18d7ce:	b005      	add	sp, #20
  18d7d0:	bcf0      	pop	{r4, r5, r6, r7}
  18d7d2:	bc02      	pop	{r1}
  18d7d4:	4708      	bx	r1

0018d7d6 <draw_string_scaled>:
  18d7d6:	b5ff      	push	{r0, r1, r2, r3, r4, r5, r6, r7, lr}
  18d7d8:	1c04      	adds	r4, r0, #0
  18d7da:	9102      	str	r1, [sp, #8]
  18d7dc:	041f      	lsls	r7, r3, #16
  18d7de:	0c3f      	lsrs	r7, r7, #16
  18d7e0:	9909      	ldr	r1, [sp, #36]	; 0x24
  18d7e2:	00c9      	lsls	r1, r1, #3
  18d7e4:	9103      	str	r1, [sp, #12]
  18d7e6:	1c15      	adds	r5, r2, #0
  18d7e8:	4e13      	ldr	r6, [pc, #76]	; (18d838 <draw_string_scaled+0x62>)
  18d7ea:	e01d      	b.n	18d828 <draw_string_scaled+0x52>
  18d7ec:	9b09      	ldr	r3, [sp, #36]	; 0x24
  18d7ee:	9300      	str	r3, [sp, #0]
  18d7f0:	990a      	ldr	r1, [sp, #40]	; 0x28
  18d7f2:	9101      	str	r1, [sp, #4]
  18d7f4:	1c20      	adds	r0, r4, #0
  18d7f6:	9902      	ldr	r1, [sp, #8]
  18d7f8:	1c3b      	adds	r3, r7, #0
  18d7fa:	f7ff fe4f 	bl	18d49c <draw_char_scaled>
  18d7fe:	9b03      	ldr	r3, [sp, #12]
  18d800:	18e4      	adds	r4, r4, r3
  18d802:	6833      	ldr	r3, [r6, #0]
  18d804:	429c      	cmp	r4, r3
  18d806:	db0e      	blt.n	18d826 <draw_string_scaled+0x50>
  18d808:	786b      	ldrb	r3, [r5, #1]
  18d80a:	2b00      	cmp	r3, #0
  18d80c:	d00b      	beq.n	18d826 <draw_string_scaled+0x50>
  18d80e:	9909      	ldr	r1, [sp, #36]	; 0x24
  18d810:	00c8      	lsls	r0, r1, #3
  18d812:	1a20      	subs	r0, r4, r0
  18d814:	9100      	str	r1, [sp, #0]
  18d816:	9b0a      	ldr	r3, [sp, #40]	; 0x28
  18d818:	9301      	str	r3, [sp, #4]
  18d81a:	9902      	ldr	r1, [sp, #8]
  18d81c:	223e      	movs	r2, #62	; 0x3e
  18d81e:	1c3b      	adds	r3, r7, #0
  18d820:	f7ff fe3c 	bl	18d49c <draw_char_scaled>
  18d824:	e005      	b.n	18d832 <draw_string_scaled+0x5c>
  18d826:	3501      	adds	r5, #1
  18d828:	782a      	ldrb	r2, [r5, #0]
  18d82a:	2a0a      	cmp	r2, #10
  18d82c:	d001      	beq.n	18d832 <draw_string_scaled+0x5c>
  18d82e:	2a00      	cmp	r2, #0
  18d830:	d1dc      	bne.n	18d7ec <draw_string_scaled+0x16>
  18d832:	bcff      	pop	{r0, r1, r2, r3, r4, r5, r6, r7}
  18d834:	bc01      	pop	{r0}
  18d836:	4700      	bx	r0
  18d838:	001a724c 	.word	0x001a724c

0018d83c <draw_osd_string>:
  18d83c:	b5f7      	push	{r0, r1, r2, r4, r5, r6, r7, lr}
  18d83e:	9102      	str	r1, [sp, #8]
  18d840:	1c14      	adds	r4, r2, #0
  18d842:	1c1a      	adds	r2, r3, #0
  18d844:	9b08      	ldr	r3, [sp, #32]
  18d846:	041b      	lsls	r3, r3, #16
  18d848:	0c1b      	lsrs	r3, r3, #16
  18d84a:	0406      	lsls	r6, r0, #16
  18d84c:	0c36      	lsrs	r6, r6, #16
  18d84e:	0c00      	lsrs	r0, r0, #16
  18d850:	4684      	mov	ip, r0
  18d852:	9809      	ldr	r0, [sp, #36]	; 0x24
  18d854:	0405      	lsls	r5, r0, #16
  18d856:	0c2d      	lsrs	r5, r5, #16
  18d858:	0c07      	lsrs	r7, r0, #16
  18d85a:	2d00      	cmp	r5, #0
  18d85c:	d004      	beq.n	18d868 <draw_osd_string+0x2c>
  18d85e:	2f00      	cmp	r7, #0
  18d860:	d002      	beq.n	18d868 <draw_osd_string+0x2c>
  18d862:	490c      	ldr	r1, [pc, #48]	; (18d894 <draw_osd_string+0x58>)
  18d864:	4288      	cmp	r0, r1
  18d866:	d106      	bne.n	18d876 <draw_osd_string+0x3a>
  18d868:	9d02      	ldr	r5, [sp, #8]
  18d86a:	1970      	adds	r0, r6, r5
  18d86c:	4666      	mov	r6, ip
  18d86e:	1931      	adds	r1, r6, r4
  18d870:	f7ff fef2 	bl	18d658 <draw_string>
  18d874:	e00a      	b.n	18d88c <draw_osd_string+0x50>
  18d876:	9802      	ldr	r0, [sp, #8]
  18d878:	1c01      	adds	r1, r0, #0
  18d87a:	4369      	muls	r1, r5
  18d87c:	1870      	adds	r0, r6, r1
  18d87e:	437c      	muls	r4, r7
  18d880:	4666      	mov	r6, ip
  18d882:	1931      	adds	r1, r6, r4
  18d884:	9500      	str	r5, [sp, #0]
  18d886:	9701      	str	r7, [sp, #4]
  18d888:	f7ff ffa5 	bl	18d7d6 <draw_string_scaled>
  18d88c:	bcf7      	pop	{r0, r1, r2, r4, r5, r6, r7}
  18d88e:	bc01      	pop	{r0}
  18d890:	4700      	bx	r0
  18d892:	46c0      	nop			; (mov r8, r8)
  18d894:	00010001 	.word	0x00010001

0018d898 <draw_txt_string>:
  18d898:	b500      	push	{lr}
  18d89a:	041b      	lsls	r3, r3, #16
  18d89c:	0c1b      	lsrs	r3, r3, #16
  18d89e:	00c0      	lsls	r0, r0, #3
  18d8a0:	0109      	lsls	r1, r1, #4
  18d8a2:	f7ff fed9 	bl	18d658 <draw_string>
  18d8a6:	bc01      	pop	{r0}
  18d8a8:	4700      	bx	r0

0018d8aa <draw_ellipse>:
  18d8aa:	b5f0      	push	{r4, r5, r6, r7, lr}
  18d8ac:	b090      	sub	sp, #64	; 0x40
  18d8ae:	9009      	str	r0, [sp, #36]	; 0x24
  18d8b0:	9104      	str	r1, [sp, #16]
  18d8b2:	9307      	str	r3, [sp, #28]
  18d8b4:	9d15      	ldr	r5, [sp, #84]	; 0x54
  18d8b6:	062d      	lsls	r5, r5, #24
  18d8b8:	0e2d      	lsrs	r5, r5, #24
  18d8ba:	1c11      	adds	r1, r2, #0
  18d8bc:	4351      	muls	r1, r2
  18d8be:	9103      	str	r1, [sp, #12]
  18d8c0:	004b      	lsls	r3, r1, #1
  18d8c2:	930a      	str	r3, [sp, #40]	; 0x28
  18d8c4:	9b07      	ldr	r3, [sp, #28]
  18d8c6:	1c19      	adds	r1, r3, #0
  18d8c8:	4359      	muls	r1, r3
  18d8ca:	910d      	str	r1, [sp, #52]	; 0x34
  18d8cc:	0049      	lsls	r1, r1, #1
  18d8ce:	910b      	str	r1, [sp, #44]	; 0x2c
  18d8d0:	1c16      	adds	r6, r2, #0
  18d8d2:	0053      	lsls	r3, r2, #1
  18d8d4:	2201      	movs	r2, #1
  18d8d6:	1ad3      	subs	r3, r2, r3
  18d8d8:	990d      	ldr	r1, [sp, #52]	; 0x34
  18d8da:	1c0a      	adds	r2, r1, #0
  18d8dc:	435a      	muls	r2, r3
  18d8de:	9202      	str	r2, [sp, #8]
  18d8e0:	9b0b      	ldr	r3, [sp, #44]	; 0x2c
  18d8e2:	1c32      	adds	r2, r6, #0
  18d8e4:	435a      	muls	r2, r3
  18d8e6:	9205      	str	r2, [sp, #20]
  18d8e8:	2700      	movs	r7, #0
  18d8ea:	9701      	str	r7, [sp, #4]
  18d8ec:	9700      	str	r7, [sp, #0]
  18d8ee:	2308      	movs	r3, #8
  18d8f0:	9916      	ldr	r1, [sp, #88]	; 0x58
  18d8f2:	4019      	ands	r1, r3
  18d8f4:	910f      	str	r1, [sp, #60]	; 0x3c
  18d8f6:	e04c      	b.n	18d992 <draw_ellipse+0xe8>
  18d8f8:	9a09      	ldr	r2, [sp, #36]	; 0x24
  18d8fa:	1b94      	subs	r4, r2, r6
  18d8fc:	9b04      	ldr	r3, [sp, #16]
  18d8fe:	9900      	ldr	r1, [sp, #0]
  18d900:	1a5b      	subs	r3, r3, r1
  18d902:	9308      	str	r3, [sp, #32]
  18d904:	9a0f      	ldr	r2, [sp, #60]	; 0x3c
  18d906:	2a00      	cmp	r2, #0
  18d908:	d011      	beq.n	18d92e <draw_ellipse+0x84>
  18d90a:	0073      	lsls	r3, r6, #1
  18d90c:	3301      	adds	r3, #1
  18d90e:	9306      	str	r3, [sp, #24]
  18d910:	1c20      	adds	r0, r4, #0
  18d912:	9908      	ldr	r1, [sp, #32]
  18d914:	1c1a      	adds	r2, r3, #0
  18d916:	1c2b      	adds	r3, r5, #0
  18d918:	f7ff fc25 	bl	18d166 <draw_hline>
  18d91c:	9b00      	ldr	r3, [sp, #0]
  18d91e:	9a04      	ldr	r2, [sp, #16]
  18d920:	1899      	adds	r1, r3, r2
  18d922:	1c20      	adds	r0, r4, #0
  18d924:	9a06      	ldr	r2, [sp, #24]
  18d926:	1c2b      	adds	r3, r5, #0
  18d928:	f7ff fc1d 	bl	18d166 <draw_hline>
  18d92c:	e019      	b.n	18d962 <draw_ellipse+0xb8>
  18d92e:	1c20      	adds	r0, r4, #0
  18d930:	9908      	ldr	r1, [sp, #32]
  18d932:	1c2a      	adds	r2, r5, #0
  18d934:	f7ff fb2b 	bl	18cf8e <draw_pixel>
  18d938:	9b00      	ldr	r3, [sp, #0]
  18d93a:	9904      	ldr	r1, [sp, #16]
  18d93c:	185b      	adds	r3, r3, r1
  18d93e:	9306      	str	r3, [sp, #24]
  18d940:	1c20      	adds	r0, r4, #0
  18d942:	1c19      	adds	r1, r3, #0
  18d944:	1c2a      	adds	r2, r5, #0
  18d946:	f7ff fb22 	bl	18cf8e <draw_pixel>
  18d94a:	9a09      	ldr	r2, [sp, #36]	; 0x24
  18d94c:	1994      	adds	r4, r2, r6
  18d94e:	1c20      	adds	r0, r4, #0
  18d950:	9908      	ldr	r1, [sp, #32]
  18d952:	1c2a      	adds	r2, r5, #0
  18d954:	f7ff fb1b 	bl	18cf8e <draw_pixel>
  18d958:	1c20      	adds	r0, r4, #0
  18d95a:	9906      	ldr	r1, [sp, #24]
  18d95c:	1c2a      	adds	r2, r5, #0
  18d95e:	f7ff fb16 	bl	18cf8e <draw_pixel>
  18d962:	9b00      	ldr	r3, [sp, #0]
  18d964:	3301      	adds	r3, #1
  18d966:	9300      	str	r3, [sp, #0]
  18d968:	990a      	ldr	r1, [sp, #40]	; 0x28
  18d96a:	187f      	adds	r7, r7, r1
  18d96c:	9a01      	ldr	r2, [sp, #4]
  18d96e:	9b0e      	ldr	r3, [sp, #56]	; 0x38
  18d970:	18d2      	adds	r2, r2, r3
  18d972:	9201      	str	r2, [sp, #4]
  18d974:	0053      	lsls	r3, r2, #1
  18d976:	9902      	ldr	r1, [sp, #8]
  18d978:	185b      	adds	r3, r3, r1
  18d97a:	2b00      	cmp	r3, #0
  18d97c:	dd09      	ble.n	18d992 <draw_ellipse+0xe8>
  18d97e:	3e01      	subs	r6, #1
  18d980:	9a05      	ldr	r2, [sp, #20]
  18d982:	9b0b      	ldr	r3, [sp, #44]	; 0x2c
  18d984:	1ad2      	subs	r2, r2, r3
  18d986:	9205      	str	r2, [sp, #20]
  18d988:	9a01      	ldr	r2, [sp, #4]
  18d98a:	1852      	adds	r2, r2, r1
  18d98c:	9201      	str	r2, [sp, #4]
  18d98e:	18c9      	adds	r1, r1, r3
  18d990:	9102      	str	r1, [sp, #8]
  18d992:	9b03      	ldr	r3, [sp, #12]
  18d994:	18fb      	adds	r3, r7, r3
  18d996:	930e      	str	r3, [sp, #56]	; 0x38
  18d998:	9905      	ldr	r1, [sp, #20]
  18d99a:	42b9      	cmp	r1, r7
  18d99c:	daac      	bge.n	18d8f8 <draw_ellipse+0x4e>
  18d99e:	9e07      	ldr	r6, [sp, #28]
  18d9a0:	0073      	lsls	r3, r6, #1
  18d9a2:	2201      	movs	r2, #1
  18d9a4:	1ad3      	subs	r3, r2, r3
  18d9a6:	9903      	ldr	r1, [sp, #12]
  18d9a8:	1c0a      	adds	r2, r1, #0
  18d9aa:	435a      	muls	r2, r3
  18d9ac:	9202      	str	r2, [sp, #8]
  18d9ae:	9b0a      	ldr	r3, [sp, #40]	; 0x28
  18d9b0:	1c32      	adds	r2, r6, #0
  18d9b2:	435a      	muls	r2, r3
  18d9b4:	9205      	str	r2, [sp, #20]
  18d9b6:	1c71      	adds	r1, r6, #1
  18d9b8:	9103      	str	r1, [sp, #12]
  18d9ba:	2700      	movs	r7, #0
  18d9bc:	9701      	str	r7, [sp, #4]
  18d9be:	9700      	str	r7, [sp, #0]
  18d9c0:	2308      	movs	r3, #8
  18d9c2:	9a16      	ldr	r2, [sp, #88]	; 0x58
  18d9c4:	401a      	ands	r2, r3
  18d9c6:	920c      	str	r2, [sp, #48]	; 0x30
  18d9c8:	e052      	b.n	18da70 <draw_ellipse+0x1c6>
  18d9ca:	9b0c      	ldr	r3, [sp, #48]	; 0x30
  18d9cc:	2b00      	cmp	r3, #0
  18d9ce:	d018      	beq.n	18da02 <draw_ellipse+0x158>
  18d9d0:	9903      	ldr	r1, [sp, #12]
  18d9d2:	42b1      	cmp	r1, r6
  18d9d4:	d034      	beq.n	18da40 <draw_ellipse+0x196>
  18d9d6:	9a09      	ldr	r2, [sp, #36]	; 0x24
  18d9d8:	9b00      	ldr	r3, [sp, #0]
  18d9da:	1ad4      	subs	r4, r2, r3
  18d9dc:	005b      	lsls	r3, r3, #1
  18d9de:	3301      	adds	r3, #1
  18d9e0:	9303      	str	r3, [sp, #12]
  18d9e2:	9a04      	ldr	r2, [sp, #16]
  18d9e4:	1b91      	subs	r1, r2, r6
  18d9e6:	1c20      	adds	r0, r4, #0
  18d9e8:	1c1a      	adds	r2, r3, #0
  18d9ea:	1c2b      	adds	r3, r5, #0
  18d9ec:	f7ff fbbb 	bl	18d166 <draw_hline>
  18d9f0:	9b04      	ldr	r3, [sp, #16]
  18d9f2:	1999      	adds	r1, r3, r6
  18d9f4:	1c20      	adds	r0, r4, #0
  18d9f6:	9a03      	ldr	r2, [sp, #12]
  18d9f8:	1c2b      	adds	r3, r5, #0
  18d9fa:	f7ff fbb4 	bl	18d166 <draw_hline>
  18d9fe:	9603      	str	r6, [sp, #12]
  18da00:	e01e      	b.n	18da40 <draw_ellipse+0x196>
  18da02:	9909      	ldr	r1, [sp, #36]	; 0x24
  18da04:	9a00      	ldr	r2, [sp, #0]
  18da06:	1a8c      	subs	r4, r1, r2
  18da08:	9b04      	ldr	r3, [sp, #16]
  18da0a:	1b9b      	subs	r3, r3, r6
  18da0c:	9307      	str	r3, [sp, #28]
  18da0e:	1c20      	adds	r0, r4, #0
  18da10:	1c19      	adds	r1, r3, #0
  18da12:	1c2a      	adds	r2, r5, #0
  18da14:	f7ff fabb 	bl	18cf8e <draw_pixel>
  18da18:	9904      	ldr	r1, [sp, #16]
  18da1a:	1989      	adds	r1, r1, r6
  18da1c:	9108      	str	r1, [sp, #32]
  18da1e:	1c20      	adds	r0, r4, #0
  18da20:	1c2a      	adds	r2, r5, #0
  18da22:	f7ff fab4 	bl	18cf8e <draw_pixel>
  18da26:	9a00      	ldr	r2, [sp, #0]
  18da28:	9b09      	ldr	r3, [sp, #36]	; 0x24
  18da2a:	18d4      	adds	r4, r2, r3
  18da2c:	1c20      	adds	r0, r4, #0
  18da2e:	9907      	ldr	r1, [sp, #28]
  18da30:	1c2a      	adds	r2, r5, #0
  18da32:	f7ff faac 	bl	18cf8e <draw_pixel>
  18da36:	1c20      	adds	r0, r4, #0
  18da38:	9908      	ldr	r1, [sp, #32]
  18da3a:	1c2a      	adds	r2, r5, #0
  18da3c:	f7ff faa7 	bl	18cf8e <draw_pixel>
  18da40:	9900      	ldr	r1, [sp, #0]
  18da42:	3101      	adds	r1, #1
  18da44:	9100      	str	r1, [sp, #0]
  18da46:	9a0b      	ldr	r2, [sp, #44]	; 0x2c
  18da48:	18bf      	adds	r7, r7, r2
  18da4a:	9b01      	ldr	r3, [sp, #4]
  18da4c:	9906      	ldr	r1, [sp, #24]
  18da4e:	185b      	adds	r3, r3, r1
  18da50:	9301      	str	r3, [sp, #4]
  18da52:	005b      	lsls	r3, r3, #1
  18da54:	9a02      	ldr	r2, [sp, #8]
  18da56:	189b      	adds	r3, r3, r2
  18da58:	2b00      	cmp	r3, #0
  18da5a:	dd09      	ble.n	18da70 <draw_ellipse+0x1c6>
  18da5c:	3e01      	subs	r6, #1
  18da5e:	9b05      	ldr	r3, [sp, #20]
  18da60:	990a      	ldr	r1, [sp, #40]	; 0x28
  18da62:	1a5b      	subs	r3, r3, r1
  18da64:	9305      	str	r3, [sp, #20]
  18da66:	9b01      	ldr	r3, [sp, #4]
  18da68:	189b      	adds	r3, r3, r2
  18da6a:	9301      	str	r3, [sp, #4]
  18da6c:	1852      	adds	r2, r2, r1
  18da6e:	9202      	str	r2, [sp, #8]
  18da70:	990d      	ldr	r1, [sp, #52]	; 0x34
  18da72:	1879      	adds	r1, r7, r1
  18da74:	9106      	str	r1, [sp, #24]
  18da76:	9a05      	ldr	r2, [sp, #20]
  18da78:	4297      	cmp	r7, r2
  18da7a:	dda6      	ble.n	18d9ca <draw_ellipse+0x120>
  18da7c:	b010      	add	sp, #64	; 0x40
  18da7e:	bcf0      	pop	{r4, r5, r6, r7}
  18da80:	bc01      	pop	{r0}
  18da82:	4700      	bx	r0

0018da84 <draw_button>:
  18da84:	b5ff      	push	{r0, r1, r2, r3, r4, r5, r6, r7, lr}
  18da86:	1c04      	adds	r4, r0, #0
  18da88:	1c0d      	adds	r5, r1, #0
  18da8a:	1c1f      	adds	r7, r3, #0
  18da8c:	4918      	ldr	r1, [pc, #96]	; (18daf0 <draw_button+0x6c>)
  18da8e:	9b09      	ldr	r3, [sp, #36]	; 0x24
  18da90:	2b00      	cmp	r3, #0
  18da92:	d002      	beq.n	18da9a <draw_button+0x16>
  18da94:	680b      	ldr	r3, [r1, #0]
  18da96:	78db      	ldrb	r3, [r3, #3]
  18da98:	e000      	b.n	18da9c <draw_button+0x18>
  18da9a:	23ff      	movs	r3, #255	; 0xff
  18da9c:	021b      	lsls	r3, r3, #8
  18da9e:	00d6      	lsls	r6, r2, #3
  18daa0:	680a      	ldr	r2, [r1, #0]
  18daa2:	7892      	ldrb	r2, [r2, #2]
  18daa4:	4313      	orrs	r3, r2
  18daa6:	9303      	str	r3, [sp, #12]
  18daa8:	1ea0      	subs	r0, r4, #2
  18daaa:	1ea9      	subs	r1, r5, #2
  18daac:	19a2      	adds	r2, r4, r6
  18daae:	3202      	adds	r2, #2
  18dab0:	1c2b      	adds	r3, r5, #0
  18dab2:	3312      	adds	r3, #18
  18dab4:	9302      	str	r3, [sp, #8]
  18dab6:	9b03      	ldr	r3, [sp, #12]
  18dab8:	9300      	str	r3, [sp, #0]
  18daba:	2319      	movs	r3, #25
  18dabc:	9301      	str	r3, [sp, #4]
  18dabe:	9b02      	ldr	r3, [sp, #8]
  18dac0:	f7ff fba8 	bl	18d214 <draw_rectangle>
  18dac4:	1c38      	adds	r0, r7, #0
  18dac6:	f008 fa83 	bl	195fd0 <lang_str>
  18daca:	f012 f899 	bl	19fc00 <__strlen_from_thumb>
  18dace:	00c0      	lsls	r0, r0, #3
  18dad0:	1a36      	subs	r6, r6, r0
  18dad2:	1076      	asrs	r6, r6, #1
  18dad4:	19a4      	adds	r4, r4, r6
  18dad6:	1c38      	adds	r0, r7, #0
  18dad8:	f008 fa7a 	bl	195fd0 <lang_str>
  18dadc:	1c02      	adds	r2, r0, #0
  18dade:	1c20      	adds	r0, r4, #0
  18dae0:	1c29      	adds	r1, r5, #0
  18dae2:	9b03      	ldr	r3, [sp, #12]
  18dae4:	f7ff fdb8 	bl	18d658 <draw_string>
  18dae8:	bcff      	pop	{r0, r1, r2, r3, r4, r5, r6, r7}
  18daea:	bc01      	pop	{r0}
  18daec:	4700      	bx	r0
  18daee:	46c0      	nop			; (mov r8, r8)
  18daf0:	001a4404 	.word	0x001a4404

0018daf4 <draw_icon_cmds>:
  18daf4:	b5ff      	push	{r0, r1, r2, r3, r4, r5, r6, r7, lr}
  18daf6:	1c05      	adds	r5, r0, #0
  18daf8:	1c0e      	adds	r6, r1, #0
  18dafa:	1c14      	adds	r4, r2, #0
  18dafc:	4f39      	ldr	r7, [pc, #228]	; (18dbe4 <draw_icon_cmds+0xf0>)
  18dafe:	683b      	ldr	r3, [r7, #0]
  18db00:	79a2      	ldrb	r2, [r4, #6]
  18db02:	5c9a      	ldrb	r2, [r3, r2]
  18db04:	9203      	str	r2, [sp, #12]
  18db06:	7962      	ldrb	r2, [r4, #5]
  18db08:	5c9f      	ldrb	r7, [r3, r2]
  18db0a:	7820      	ldrb	r0, [r4, #0]
  18db0c:	3801      	subs	r0, #1
  18db0e:	2806      	cmp	r0, #6
  18db10:	d864      	bhi.n	18dbdc <draw_icon_cmds+0xe8>
  18db12:	f00f f9c7 	bl	19cea4 <__gnu_thumb1_case_uqi>
  18db16:	0d04      	.short	0x0d04
  18db18:	40312216 	.word	0x40312216
  18db1c:	4f          	.byte	0x4f
  18db1d:	00          	.byte	0x00
  18db1e:	7860      	ldrb	r0, [r4, #1]
  18db20:	1828      	adds	r0, r5, r0
  18db22:	78a1      	ldrb	r1, [r4, #2]
  18db24:	1871      	adds	r1, r6, r1
  18db26:	78e2      	ldrb	r2, [r4, #3]
  18db28:	1c3b      	adds	r3, r7, #0
  18db2a:	f7ff fb1c 	bl	18d166 <draw_hline>
  18db2e:	e053      	b.n	18dbd8 <draw_icon_cmds+0xe4>
  18db30:	7860      	ldrb	r0, [r4, #1]
  18db32:	1828      	adds	r0, r5, r0
  18db34:	78a1      	ldrb	r1, [r4, #2]
  18db36:	1871      	adds	r1, r6, r1
  18db38:	7922      	ldrb	r2, [r4, #4]
  18db3a:	1c3b      	adds	r3, r7, #0
  18db3c:	f7ff fb44 	bl	18d1c8 <draw_vline>
  18db40:	e04a      	b.n	18dbd8 <draw_icon_cmds+0xe4>
  18db42:	7860      	ldrb	r0, [r4, #1]
  18db44:	1828      	adds	r0, r5, r0
  18db46:	78a1      	ldrb	r1, [r4, #2]
  18db48:	1871      	adds	r1, r6, r1
  18db4a:	78e2      	ldrb	r2, [r4, #3]
  18db4c:	18aa      	adds	r2, r5, r2
  18db4e:	7923      	ldrb	r3, [r4, #4]
  18db50:	18f3      	adds	r3, r6, r3
  18db52:	9700      	str	r7, [sp, #0]
  18db54:	f7ff fab4 	bl	18d0c0 <draw_line>
  18db58:	e03e      	b.n	18dbd8 <draw_icon_cmds+0xe4>
  18db5a:	7860      	ldrb	r0, [r4, #1]
  18db5c:	1828      	adds	r0, r5, r0
  18db5e:	78a1      	ldrb	r1, [r4, #2]
  18db60:	1871      	adds	r1, r6, r1
  18db62:	9102      	str	r1, [sp, #8]
  18db64:	78e2      	ldrb	r2, [r4, #3]
  18db66:	18aa      	adds	r2, r5, r2
  18db68:	7923      	ldrb	r3, [r4, #4]
  18db6a:	18f3      	adds	r3, r6, r3
  18db6c:	023f      	lsls	r7, r7, #8
  18db6e:	9903      	ldr	r1, [sp, #12]
  18db70:	430f      	orrs	r7, r1
  18db72:	9700      	str	r7, [sp, #0]
  18db74:	2701      	movs	r7, #1
  18db76:	e02b      	b.n	18dbd0 <draw_icon_cmds+0xdc>
  18db78:	7860      	ldrb	r0, [r4, #1]
  18db7a:	1828      	adds	r0, r5, r0
  18db7c:	78a1      	ldrb	r1, [r4, #2]
  18db7e:	1871      	adds	r1, r6, r1
  18db80:	9102      	str	r1, [sp, #8]
  18db82:	78e2      	ldrb	r2, [r4, #3]
  18db84:	18aa      	adds	r2, r5, r2
  18db86:	7923      	ldrb	r3, [r4, #4]
  18db88:	18f3      	adds	r3, r6, r3
  18db8a:	023f      	lsls	r7, r7, #8
  18db8c:	9903      	ldr	r1, [sp, #12]
  18db8e:	430f      	orrs	r7, r1
  18db90:	9700      	str	r7, [sp, #0]
  18db92:	2709      	movs	r7, #9
  18db94:	e01c      	b.n	18dbd0 <draw_icon_cmds+0xdc>
  18db96:	7860      	ldrb	r0, [r4, #1]
  18db98:	1828      	adds	r0, r5, r0
  18db9a:	78a1      	ldrb	r1, [r4, #2]
  18db9c:	1871      	adds	r1, r6, r1
  18db9e:	9102      	str	r1, [sp, #8]
  18dba0:	78e2      	ldrb	r2, [r4, #3]
  18dba2:	18aa      	adds	r2, r5, r2
  18dba4:	7923      	ldrb	r3, [r4, #4]
  18dba6:	18f3      	adds	r3, r6, r3
  18dba8:	023f      	lsls	r7, r7, #8
  18dbaa:	9903      	ldr	r1, [sp, #12]
  18dbac:	430f      	orrs	r7, r1
  18dbae:	9700      	str	r7, [sp, #0]
  18dbb0:	2741      	movs	r7, #65	; 0x41
  18dbb2:	e00d      	b.n	18dbd0 <draw_icon_cmds+0xdc>
  18dbb4:	7860      	ldrb	r0, [r4, #1]
  18dbb6:	1828      	adds	r0, r5, r0
  18dbb8:	78a1      	ldrb	r1, [r4, #2]
  18dbba:	1871      	adds	r1, r6, r1
  18dbbc:	9102      	str	r1, [sp, #8]
  18dbbe:	78e2      	ldrb	r2, [r4, #3]
  18dbc0:	18aa      	adds	r2, r5, r2
  18dbc2:	7923      	ldrb	r3, [r4, #4]
  18dbc4:	18f3      	adds	r3, r6, r3
  18dbc6:	023f      	lsls	r7, r7, #8
  18dbc8:	9903      	ldr	r1, [sp, #12]
  18dbca:	430f      	orrs	r7, r1
  18dbcc:	9700      	str	r7, [sp, #0]
  18dbce:	2749      	movs	r7, #73	; 0x49
  18dbd0:	9701      	str	r7, [sp, #4]
  18dbd2:	9902      	ldr	r1, [sp, #8]
  18dbd4:	f7ff fb1e 	bl	18d214 <draw_rectangle>
  18dbd8:	3408      	adds	r4, #8
  18dbda:	e78f      	b.n	18dafc <draw_icon_cmds+0x8>
  18dbdc:	bcff      	pop	{r0, r1, r2, r3, r4, r5, r6, r7}
  18dbde:	bc01      	pop	{r0}
  18dbe0:	4700      	bx	r0
  18dbe2:	46c0      	nop			; (mov r8, r8)
  18dbe4:	001a4404 	.word	0x001a4404

0018dbe8 <set_palette>:
  18dbe8:	4b05      	ldr	r3, [pc, #20]	; (18dc00 <set_palette+0x18>)
  18dbea:	33fc      	adds	r3, #252	; 0xfc
  18dbec:	69db      	ldr	r3, [r3, #28]
  18dbee:	2b00      	cmp	r3, #0
  18dbf0:	d001      	beq.n	18dbf6 <set_palette+0xe>
  18dbf2:	4b04      	ldr	r3, [pc, #16]	; (18dc04 <set_palette+0x1c>)
  18dbf4:	e000      	b.n	18dbf8 <set_palette+0x10>
  18dbf6:	4b04      	ldr	r3, [pc, #16]	; (18dc08 <set_palette+0x20>)
  18dbf8:	4a04      	ldr	r2, [pc, #16]	; (18dc0c <set_palette+0x24>)
  18dbfa:	6013      	str	r3, [r2, #0]
  18dbfc:	4770      	bx	lr
  18dbfe:	46c0      	nop			; (mov r8, r8)
  18dc00:	001a70cc 	.word	0x001a70cc
  18dc04:	001a9d3c 	.word	0x001a9d3c
  18dc08:	001a9d50 	.word	0x001a9d50
  18dc0c:	001a4404 	.word	0x001a4404

0018dc10 <get_script_color>:
  18dc10:	28ff      	cmp	r0, #255	; 0xff
  18dc12:	dc02      	bgt.n	18dc1a <get_script_color+0xa>
  18dc14:	0600      	lsls	r0, r0, #24
  18dc16:	0e00      	lsrs	r0, r0, #24
  18dc18:	e005      	b.n	18dc26 <get_script_color+0x16>
  18dc1a:	4b03      	ldr	r3, [pc, #12]	; (18dc28 <get_script_color+0x18>)
  18dc1c:	681b      	ldr	r3, [r3, #0]
  18dc1e:	1818      	adds	r0, r3, r0
  18dc20:	3801      	subs	r0, #1
  18dc22:	38ff      	subs	r0, #255	; 0xff
  18dc24:	7800      	ldrb	r0, [r0, #0]
  18dc26:	4770      	bx	lr
  18dc28:	001a4404 	.word	0x001a4404

0018dc2c <chdkColorToCanonColor>:
  18dc2c:	b081      	sub	sp, #4
  18dc2e:	1c02      	adds	r2, r0, #0
  18dc30:	0403      	lsls	r3, r0, #16
  18dc32:	0c1b      	lsrs	r3, r3, #16
  18dc34:	4669      	mov	r1, sp
  18dc36:	8008      	strh	r0, [r1, #0]
  18dc38:	0610      	lsls	r0, r2, #24
  18dc3a:	0e00      	lsrs	r0, r0, #24
  18dc3c:	0a1b      	lsrs	r3, r3, #8
  18dc3e:	d002      	beq.n	18dc46 <chdkColorToCanonColor+0x1a>
  18dc40:	4b02      	ldr	r3, [pc, #8]	; (18dc4c <chdkColorToCanonColor+0x20>)
  18dc42:	681b      	ldr	r3, [r3, #0]
  18dc44:	5c18      	ldrb	r0, [r3, r0]
  18dc46:	b001      	add	sp, #4
  18dc48:	4770      	bx	lr
  18dc4a:	46c0      	nop			; (mov r8, r8)
  18dc4c:	001a4404 	.word	0x001a4404

0018dc50 <user_color>:
  18dc50:	b511      	push	{r0, r4, lr}
  18dc52:	9000      	str	r0, [sp, #0]
  18dc54:	f7ff ffea 	bl	18dc2c <chdkColorToCanonColor>
  18dc58:	1c04      	adds	r4, r0, #0
  18dc5a:	466b      	mov	r3, sp
  18dc5c:	8858      	ldrh	r0, [r3, #2]
  18dc5e:	f7ff ffe5 	bl	18dc2c <chdkColorToCanonColor>
  18dc62:	0200      	lsls	r0, r0, #8
  18dc64:	4304      	orrs	r4, r0
  18dc66:	0420      	lsls	r0, r4, #16
  18dc68:	0c00      	lsrs	r0, r0, #16
  18dc6a:	bc12      	pop	{r1, r4}
  18dc6c:	bc02      	pop	{r1}
  18dc6e:	4708      	bx	r1
  18dc70:	4718      	bx	r3
  18dc72:	46c0      	nop			; (mov r8, r8)

0018dc74 <chdk_heap_init>:
  18dc74:	2300      	movs	r3, #0
  18dc76:	6003      	str	r3, [r0, #0]
  18dc78:	6043      	str	r3, [r0, #4]
  18dc7a:	6083      	str	r3, [r0, #8]
  18dc7c:	60c3      	str	r3, [r0, #12]
  18dc7e:	4770      	bx	lr

0018dc80 <combine_meminfo>:
  18dc80:	6882      	ldr	r2, [r0, #8]
  18dc82:	688b      	ldr	r3, [r1, #8]
  18dc84:	18d3      	adds	r3, r2, r3
  18dc86:	6083      	str	r3, [r0, #8]
  18dc88:	69cb      	ldr	r3, [r1, #28]
  18dc8a:	69c2      	ldr	r2, [r0, #28]
  18dc8c:	4293      	cmp	r3, r2
  18dc8e:	dd00      	ble.n	18dc92 <combine_meminfo+0x12>
  18dc90:	61c3      	str	r3, [r0, #28]
  18dc92:	6982      	ldr	r2, [r0, #24]
  18dc94:	698b      	ldr	r3, [r1, #24]
  18dc96:	18d3      	adds	r3, r2, r3
  18dc98:	6183      	str	r3, [r0, #24]
  18dc9a:	6a02      	ldr	r2, [r0, #32]
  18dc9c:	6a0b      	ldr	r3, [r1, #32]
  18dc9e:	18d3      	adds	r3, r2, r3
  18dca0:	6203      	str	r3, [r0, #32]
  18dca2:	68c2      	ldr	r2, [r0, #12]
  18dca4:	68cb      	ldr	r3, [r1, #12]
  18dca6:	18d3      	adds	r3, r2, r3
  18dca8:	60c3      	str	r3, [r0, #12]
  18dcaa:	6902      	ldr	r2, [r0, #16]
  18dcac:	690b      	ldr	r3, [r1, #16]
  18dcae:	18d3      	adds	r3, r2, r3
  18dcb0:	6103      	str	r3, [r0, #16]
  18dcb2:	6942      	ldr	r2, [r0, #20]
  18dcb4:	694b      	ldr	r3, [r1, #20]
  18dcb6:	18d3      	adds	r3, r2, r3
  18dcb8:	6143      	str	r3, [r0, #20]
  18dcba:	4770      	bx	lr

0018dcbc <chdk_free>:
  18dcbc:	b510      	push	{r4, lr}
  18dcbe:	1c03      	adds	r3, r0, #0
  18dcc0:	1e02      	subs	r2, r0, #0
  18dcc2:	d00c      	beq.n	18dcde <chdk_free+0x22>
  18dcc4:	6812      	ldr	r2, [r2, #0]
  18dcc6:	1e10      	subs	r0, r2, #0
  18dcc8:	d009      	beq.n	18dcde <chdk_free+0x22>
  18dcca:	685c      	ldr	r4, [r3, #4]
  18dccc:	2200      	movs	r2, #0
  18dcce:	42a1      	cmp	r1, r4
  18dcd0:	d305      	bcc.n	18dcde <chdk_free+0x22>
  18dcd2:	689b      	ldr	r3, [r3, #8]
  18dcd4:	4299      	cmp	r1, r3
  18dcd6:	d202      	bcs.n	18dcde <chdk_free+0x22>
  18dcd8:	f00b fca4 	bl	199624 <suba_free>
  18dcdc:	2201      	movs	r2, #1
  18dcde:	1c10      	adds	r0, r2, #0
  18dce0:	bc10      	pop	{r4}
  18dce2:	bc02      	pop	{r1}
  18dce4:	4708      	bx	r1

0018dce6 <chdk_malloc>:
  18dce6:	b500      	push	{lr}
  18dce8:	2800      	cmp	r0, #0
  18dcea:	d005      	beq.n	18dcf8 <chdk_malloc+0x12>
  18dcec:	6800      	ldr	r0, [r0, #0]
  18dcee:	2800      	cmp	r0, #0
  18dcf0:	d002      	beq.n	18dcf8 <chdk_malloc+0x12>
  18dcf2:	2200      	movs	r2, #0
  18dcf4:	f00b fc3c 	bl	199570 <suba_alloc>
  18dcf8:	bc02      	pop	{r1}
  18dcfa:	4708      	bx	r1

0018dcfc <chdk_meminfo>:
  18dcfc:	b537      	push	{r0, r1, r2, r4, r5, lr}
  18dcfe:	1e03      	subs	r3, r0, #0
  18dd00:	d01b      	beq.n	18dd3a <chdk_meminfo+0x3e>
  18dd02:	681a      	ldr	r2, [r3, #0]
  18dd04:	2a00      	cmp	r2, #0
  18dd06:	d018      	beq.n	18dd3a <chdk_meminfo+0x3e>
  18dd08:	685a      	ldr	r2, [r3, #4]
  18dd0a:	600a      	str	r2, [r1, #0]
  18dd0c:	689a      	ldr	r2, [r3, #8]
  18dd0e:	604a      	str	r2, [r1, #4]
  18dd10:	68da      	ldr	r2, [r3, #12]
  18dd12:	608a      	str	r2, [r1, #8]
  18dd14:	6818      	ldr	r0, [r3, #0]
  18dd16:	1c0c      	adds	r4, r1, #0
  18dd18:	340c      	adds	r4, #12
  18dd1a:	1c0a      	adds	r2, r1, #0
  18dd1c:	3210      	adds	r2, #16
  18dd1e:	1c0b      	adds	r3, r1, #0
  18dd20:	3314      	adds	r3, #20
  18dd22:	1c0d      	adds	r5, r1, #0
  18dd24:	3518      	adds	r5, #24
  18dd26:	9500      	str	r5, [sp, #0]
  18dd28:	3504      	adds	r5, #4
  18dd2a:	9501      	str	r5, [sp, #4]
  18dd2c:	3120      	adds	r1, #32
  18dd2e:	9102      	str	r1, [sp, #8]
  18dd30:	1c21      	adds	r1, r4, #0
  18dd32:	f00b fb9b 	bl	19946c <suba_getmeminfo>
  18dd36:	2001      	movs	r0, #1
  18dd38:	e005      	b.n	18dd46 <chdk_meminfo+0x4a>
  18dd3a:	1c08      	adds	r0, r1, #0
  18dd3c:	2100      	movs	r1, #0
  18dd3e:	2224      	movs	r2, #36	; 0x24
  18dd40:	f012 f816 	bl	19fd70 <__memset_from_thumb>
  18dd44:	2000      	movs	r0, #0
  18dd46:	bc3e      	pop	{r1, r2, r3, r4, r5}
  18dd48:	bc02      	pop	{r1}
  18dd4a:	4708      	bx	r1

0018dd4c <exmem_malloc_init>:
  18dd4c:	b500      	push	{lr}
  18dd4e:	4802      	ldr	r0, [pc, #8]	; (18dd58 <exmem_malloc_init+0xc>)
  18dd50:	f7ff ff90 	bl	18dc74 <chdk_heap_init>
  18dd54:	bc01      	pop	{r0}
  18dd56:	4700      	bx	r0
  18dd58:	001a9df0 	.word	0x001a9df0

0018dd5c <GetExMemInfo>:
  18dd5c:	b500      	push	{lr}
  18dd5e:	1c01      	adds	r1, r0, #0
  18dd60:	4802      	ldr	r0, [pc, #8]	; (18dd6c <GetExMemInfo+0x10>)
  18dd62:	f7ff ffcb 	bl	18dcfc <chdk_meminfo>
  18dd66:	bc02      	pop	{r1}
  18dd68:	4708      	bx	r1
  18dd6a:	46c0      	nop			; (mov r8, r8)
  18dd6c:	001a9df0 	.word	0x001a9df0

0018dd70 <aram_malloc_init>:
  18dd70:	b500      	push	{lr}
  18dd72:	4803      	ldr	r0, [pc, #12]	; (18dd80 <aram_malloc_init+0x10>)
  18dd74:	3010      	adds	r0, #16
  18dd76:	f7ff ff7d 	bl	18dc74 <chdk_heap_init>
  18dd7a:	bc01      	pop	{r0}
  18dd7c:	4700      	bx	r0
  18dd7e:	46c0      	nop			; (mov r8, r8)
  18dd80:	001a9df0 	.word	0x001a9df0

0018dd84 <GetARamInfo>:
  18dd84:	b500      	push	{lr}
  18dd86:	1c01      	adds	r1, r0, #0
  18dd88:	4802      	ldr	r0, [pc, #8]	; (18dd94 <GetARamInfo+0x10>)
  18dd8a:	3010      	adds	r0, #16
  18dd8c:	f7ff ffb6 	bl	18dcfc <chdk_meminfo>
  18dd90:	bc02      	pop	{r1}
  18dd92:	4708      	bx	r1
  18dd94:	001a9df0 	.word	0x001a9df0

0018dd98 <GetCombinedMemInfo>:
  18dd98:	b510      	push	{r4, lr}
  18dd9a:	b089      	sub	sp, #36	; 0x24
  18dd9c:	1c04      	adds	r4, r0, #0
  18dd9e:	f011 fefb 	bl	19fb98 <__GetMemInfo_from_thumb>
  18dda2:	2300      	movs	r3, #0
  18dda4:	6063      	str	r3, [r4, #4]
  18dda6:	6023      	str	r3, [r4, #0]
  18dda8:	4668      	mov	r0, sp
  18ddaa:	f7ff ffeb 	bl	18dd84 <GetARamInfo>
  18ddae:	2800      	cmp	r0, #0
  18ddb0:	d003      	beq.n	18ddba <GetCombinedMemInfo+0x22>
  18ddb2:	1c20      	adds	r0, r4, #0
  18ddb4:	4669      	mov	r1, sp
  18ddb6:	f7ff ff63 	bl	18dc80 <combine_meminfo>
