
main.elf:     file format elf32-littlearm
architecture: arm, flags 0x00000012:
EXEC_P, HAS_SYMS
start address 0x00001900

Sections:
Idx Name          Size      VMA       LMA       File off  Algn
  0 .text         00000308  00001900  00001900  00000054  2**2
                  CONTENTS, ALLOC, LOAD, CODE
  1 .data         000203bc  00001c08  00001c08  0000035c  2**2
                  CONTENTS, ALLOC, LOAD, DATA
  2 .bss          0000000c  00021fc4  00021fc4  00020718  2**0
                  ALLOC

Disassembly of section .text:

00001900 <_start>:
    1900:	e3a0dc19 	mov	sp, #6400	; 0x1900
    1904:	eb000063 	bl	1a98 <check_compat>
    1908:	e3a0dc19 	mov	sp, #6400	; 0x1900
    190c:	e3a0b000 	mov	fp, #0
    1910:	ea000085 	b	1b2c <my_restart>

00001914 <set_led>:
    1914:	e3520002 	cmp	r2, #2
    1918:	1a000006 	bne	1938 <set_led+0x24>
    191c:	e5903000 	ldr	r3, [r0]
    1920:	e3c33030 	bic	r3, r3, #48	; 0x30
    1924:	e3510000 	cmp	r1, #0
    1928:	03a01020 	moveq	r1, #32
    192c:	13a01000 	movne	r1, #0
    1930:	e1811003 	orr	r1, r1, r3
    1934:	ea000010 	b	197c <set_led+0x68>
    1938:	e3520003 	cmp	r2, #3
    193c:	059f3040 	ldreq	r3, [pc, #64]	; 1984 <set_led+0x70>
    1940:	059f2040 	ldreq	r2, [pc, #64]	; 1988 <set_led+0x74>
    1944:	0a000003 	beq	1958 <set_led+0x44>
    1948:	e3520004 	cmp	r2, #4
    194c:	1a000005 	bne	1968 <set_led+0x54>
    1950:	e59f3034 	ldr	r3, [pc, #52]	; 198c <set_led+0x78>
    1954:	e59f2034 	ldr	r2, [pc, #52]	; 1990 <set_led+0x7c>
    1958:	e3510000 	cmp	r1, #0
    195c:	01a01002 	moveq	r1, r2
    1960:	11a01003 	movne	r1, r3
    1964:	ea000004 	b	197c <set_led+0x68>
    1968:	e3520001 	cmp	r2, #1
    196c:	112fff1e 	bxne	lr
    1970:	e3510000 	cmp	r1, #0
    1974:	03a01044 	moveq	r1, #68	; 0x44
    1978:	13a01046 	movne	r1, #70	; 0x46
    197c:	e5801000 	str	r1, [r0]
    1980:	e12fff1e 	bx	lr
    1984:	0093d800 	.word	0x0093d800
    1988:	0083dc00 	.word	0x0083dc00
    198c:	004d0002 	.word	0x004d0002
    1990:	004c0003 	.word	0x004c0003

00001994 <get_pid>:
    1994:	e59f3014 	ldr	r3, [pc, #20]	; 19b0 <get_pid+0x1c>
    1998:	e5932008 	ldr	r2, [r3, #8]
    199c:	e1d200b0 	ldrh	r0, [r2]
    19a0:	e1d330b0 	ldrh	r3, [r3]
    19a4:	e1530000 	cmp	r3, r0
    19a8:	13a00000 	movne	r0, #0
    19ac:	e12fff1e 	bx	lr
    19b0:	00021fa8 	.word	0x00021fa8

000019b4 <blink>:
    19b4:	e92d4030 	push	{r4, r5, lr}
    19b8:	e1a00800 	lsl	r0, r0, #16
    19bc:	e59f3064 	ldr	r3, [pc, #100]	; 1a28 <blink+0x74>
    19c0:	e1d320b0 	ldrh	r2, [r3]
    19c4:	e1520820 	cmp	r2, r0, lsr #16
    19c8:	1a000003 	bne	19dc <blink+0x28>
    19cc:	e5934004 	ldr	r4, [r3, #4]
    19d0:	e1d350f2 	ldrsh	r5, [r3, #2]
    19d4:	e3540000 	cmp	r4, #0
    19d8:	1a000000 	bne	19e0 <blink+0x2c>
    19dc:	eafffffe 	b	19dc <blink+0x28>
    19e0:	e1a00004 	mov	r0, r4
    19e4:	e3a01001 	mov	r1, #1
    19e8:	e1a02005 	mov	r2, r5
    19ec:	ebffffc8 	bl	1914 <set_led>
    19f0:	e59f1034 	ldr	r1, [pc, #52]	; 1a2c <blink+0x78>
    19f4:	e1a00000 	nop			; (mov r0, r0)
    19f8:	e1a00000 	nop			; (mov r0, r0)
    19fc:	e2511001 	subs	r1, r1, #1
    1a00:	1afffffb 	bne	19f4 <blink+0x40>
    1a04:	e1a00004 	mov	r0, r4
    1a08:	e1a02005 	mov	r2, r5
    1a0c:	ebffffc0 	bl	1914 <set_led>
    1a10:	e59f3014 	ldr	r3, [pc, #20]	; 1a2c <blink+0x78>
    1a14:	e1a00000 	nop			; (mov r0, r0)
    1a18:	e1a00000 	nop			; (mov r0, r0)
    1a1c:	e2533001 	subs	r3, r3, #1
    1a20:	1afffffb 	bne	1a14 <blink+0x60>
    1a24:	eaffffed 	b	19e0 <blink+0x2c>
    1a28:	00021fa8 	.word	0x00021fa8
    1a2c:	00989680 	.word	0x00989680

00001a30 <ver_cmp>:
    1a30:	e3a03000 	mov	r3, #0
    1a34:	ea000000 	b	1a3c <ver_cmp+0xc>
    1a38:	e2833001 	add	r3, r3, #1
    1a3c:	e7d02003 	ldrb	r2, [r0, r3]
    1a40:	e7d1c003 	ldrb	ip, [r1, r3]
    1a44:	e15c0002 	cmp	ip, r2
    1a48:	1a000001 	bne	1a54 <ver_cmp+0x24>
    1a4c:	e35c0000 	cmp	ip, #0
    1a50:	1afffff8 	bne	1a38 <ver_cmp+0x8>
    1a54:	e2720001 	rsbs	r0, r2, #1
    1a58:	33a00000 	movcc	r0, #0
    1a5c:	e12fff1e 	bx	lr

00001a60 <check_pid>:
    1a60:	e52de004 	push	{lr}		; (str lr, [sp, #-4]!)
    1a64:	e59f3028 	ldr	r3, [pc, #40]	; 1a94 <check_pid+0x34>
    1a68:	e593200c 	ldr	r2, [r3, #12]
    1a6c:	e1d200b0 	ldrh	r0, [r2]
    1a70:	e1d331f0 	ldrsh	r3, [r3, #16]
    1a74:	e1a00800 	lsl	r0, r0, #16
    1a78:	e1530840 	cmp	r3, r0, asr #16
    1a7c:	0a000001 	beq	1a88 <check_pid+0x28>
    1a80:	ebffffc3 	bl	1994 <get_pid>
    1a84:	ebffffca 	bl	19b4 <blink>
    1a88:	e1a00820 	lsr	r0, r0, #16
    1a8c:	e49de004 	pop	{lr}		; (ldr lr, [sp], #4)
    1a90:	e12fff1e 	bx	lr
    1a94:	00021fa8 	.word	0x00021fa8

00001a98 <check_compat>:
    1a98:	e92d4010 	push	{r4, lr}
    1a9c:	ebffffef 	bl	1a60 <check_pid>
    1aa0:	e1a04000 	mov	r4, r0
    1aa4:	e59f301c 	ldr	r3, [pc, #28]	; 1ac8 <check_compat+0x30>
    1aa8:	e5930018 	ldr	r0, [r3, #24]
    1aac:	e5931014 	ldr	r1, [r3, #20]
    1ab0:	ebffffde 	bl	1a30 <ver_cmp>
    1ab4:	e3500000 	cmp	r0, #0
    1ab8:	01a00004 	moveq	r0, r4
    1abc:	0bffffbc 	bleq	19b4 <blink>
    1ac0:	e8bd4010 	pop	{r4, lr}
    1ac4:	e12fff1e 	bx	lr
    1ac8:	00021fa8 	.word	0x00021fa8

00001acc <core_copy>:
    1acc:	e52d4004 	push	{r4}		; (str r4, [sp, #-4]!)
    1ad0:	e1500001 	cmp	r0, r1
    1ad4:	2a000010 	bcs	1b1c <core_copy+0x50>
    1ad8:	e1a03102 	lsl	r3, r2, #2
    1adc:	e080c003 	add	ip, r0, r3
    1ae0:	e151000c 	cmp	r1, ip
    1ae4:	30811003 	addcc	r1, r1, r3
    1ae8:	33a03000 	movcc	r3, #0
    1aec:	3a000005 	bcc	1b08 <core_copy+0x3c>
    1af0:	ea000009 	b	1b1c <core_copy+0x50>
    1af4:	e08c0003 	add	r0, ip, r3
    1af8:	e5104004 	ldr	r4, [r0, #-4]
    1afc:	e0810003 	add	r0, r1, r3
    1b00:	e5004004 	str	r4, [r0, #-4]
    1b04:	e2433004 	sub	r3, r3, #4
    1b08:	e2522001 	subs	r2, r2, #1
    1b0c:	2afffff8 	bcs	1af4 <core_copy+0x28>
    1b10:	ea000003 	b	1b24 <core_copy+0x58>
    1b14:	e4903004 	ldr	r3, [r0], #4
    1b18:	e4813004 	str	r3, [r1], #4
    1b1c:	e2522001 	subs	r2, r2, #1
    1b20:	2afffffb 	bcs	1b14 <core_copy+0x48>
    1b24:	e8bd0010 	pop	{r4}
    1b28:	e12fff1e 	bx	lr

00001b2c <my_restart>:
    1b2c:	e52de004 	push	{lr}		; (str lr, [sp, #-4]!)
    1b30:	e59f20a8 	ldr	r2, [pc, #168]	; 1be0 <my_restart+0xb4>
    1b34:	e59f30a8 	ldr	r3, [pc, #168]	; 1be4 <my_restart+0xb8>
    1b38:	e58231fc 	str	r3, [r2, #508]	; 0x1fc
    1b3c:	e59f30a4 	ldr	r3, [pc, #164]	; 1be8 <my_restart+0xbc>
    1b40:	ea000001 	b	1b4c <my_restart+0x20>
    1b44:	e1a00000 	nop			; (mov r0, r0)
    1b48:	e1a00000 	nop			; (mov r0, r0)
    1b4c:	e2533001 	subs	r3, r3, #1
    1b50:	1afffffb 	bne	1b44 <my_restart+0x18>
    1b54:	e59f3090 	ldr	r3, [pc, #144]	; 1bec <my_restart+0xc0>
    1b58:	e58231fc 	str	r3, [r2, #508]	; 0x1fc
    1b5c:	e59f3084 	ldr	r3, [pc, #132]	; 1be8 <my_restart+0xbc>
    1b60:	ea000001 	b	1b6c <my_restart+0x40>
    1b64:	e1a00000 	nop			; (mov r0, r0)
    1b68:	e1a00000 	nop			; (mov r0, r0)
    1b6c:	e2533001 	subs	r3, r3, #1
    1b70:	1afffffb 	bne	1b64 <my_restart+0x38>
    1b74:	e59f5074 	ldr	r5, [pc, #116]	; 1bf0 <my_restart+0xc4>
    1b78:	e59f3074 	ldr	r3, [pc, #116]	; 1bf4 <my_restart+0xc8>
    1b7c:	e5932000 	ldr	r2, [r3]
    1b80:	e2822003 	add	r2, r2, #3
    1b84:	e59f306c 	ldr	r3, [pc, #108]	; 1bf8 <my_restart+0xcc>
    1b88:	e5930000 	ldr	r0, [r3]
    1b8c:	e1a01005 	mov	r1, r5
    1b90:	e1a02142 	asr	r2, r2, #2
    1b94:	ebffffcc 	bl	1acc <core_copy>
    1b98:	e3a00078 	mov	r0, #120	; 0x78
    1b9c:	ee010f10 	mcr	15, 0, r0, cr1, cr0, {0}
    1ba0:	e3a00000 	mov	r0, #0
    1ba4:	ee070f9a 	mcr	15, 0, r0, cr7, cr10, {4}
    1ba8:	ee070f15 	mcr	15, 0, r0, cr7, cr5, {0}
    1bac:	ee070f16 	mcr	15, 0, r0, cr7, cr6, {0}
    1bb0:	e3a0011a 	mov	r0, #-2147483642	; 0x80000006
    1bb4:	ee090f11 	mcr	15, 0, r0, cr9, cr1, {0}
    1bb8:	ee090f31 	mcr	15, 0, r0, cr9, cr1, {1}
    1bbc:	ee110f10 	mrc	15, 0, r0, cr1, cr0, {0}
    1bc0:	e3800805 	orr	r0, r0, #327680	; 0x50000
    1bc4:	ee010f10 	mcr	15, 0, r0, cr1, cr0, {0}
    1bc8:	e59f002c 	ldr	r0, [pc, #44]	; 1bfc <my_restart+0xd0>
    1bcc:	e3a01102 	mov	r1, #-2147483648	; 0x80000000
    1bd0:	e5810ffc 	str	r0, [r1, #4092]	; 0xffc
    1bd4:	e1a00005 	mov	r0, r5
    1bd8:	e12fff10 	bx	r0
    1bdc:	eafffffe 	b	1bdc <my_restart+0xb0>
    1be0:	c022d000 	.word	0xc022d000
    1be4:	0093d800 	.word	0x0093d800
    1be8:	00989681 	.word	0x00989681
    1bec:	0083dc00 	.word	0x0083dc00
    1bf0:	001899d8 	.word	0x001899d8
    1bf4:	00001c00 	.word	0x00001c00
    1bf8:	00001c04 	.word	0x00001c04
    1bfc:	12345678 	.word	0x12345678

00001c00 <blob_chdk_core_size>:
    1c00:	0002038c 	.word	0x0002038c

00001c04 <blob_chdk_core>:
    1c04:	00001c1c 	.word	0x00001c1c
